
kernel/kernel:     file format elf64-littleriscv


Disassembly of section .text:

0000000080000000 <_entry>:
_entry:
        # set up a stack for C.
        # stack0 is declared in start.c,
        # with a 4096-byte stack per CPU.
        # sp = stack0 + ((hartid + 1) * 4096)
        la sp, stack0
    80000000:	00008117          	auipc	sp,0x8
    80000004:	88010113          	add	sp,sp,-1920 # 80007880 <stack0>
        li a0, 1024*4
    80000008:	6505                	lui	a0,0x1
        csrr a1, mhartid
    8000000a:	f14025f3          	csrr	a1,mhartid
        addi a1, a1, 1
    8000000e:	0585                	add	a1,a1,1
        mul a0, a0, a1
    80000010:	02b50533          	mul	a0,a0,a1
        add sp, sp, a0
    80000014:	912a                	add	sp,sp,a0
        # jump to start() in start.c
        call start
    80000016:	04a000ef          	jal	80000060 <start>

000000008000001a <spin>:
spin:
        j spin
    8000001a:	a001                	j	8000001a <spin>

000000008000001c <timerinit>:
}

// ask each hart to generate timer interrupts.
void
timerinit()
{
    8000001c:	1141                	add	sp,sp,-16
    8000001e:	e422                	sd	s0,8(sp)
    80000020:	0800                	add	s0,sp,16
#define MIE_STIE (1L << 5)  // supervisor timer
static inline uint64
r_mie()
{
  uint64 x;
  asm volatile("csrr %0, mie" : "=r" (x) );
    80000022:	304027f3          	csrr	a5,mie
  // enable supervisor-mode timer interrupts.
  w_mie(r_mie() | MIE_STIE);
    80000026:	0207e793          	or	a5,a5,32
}

static inline void 
w_mie(uint64 x)
{
  asm volatile("csrw mie, %0" : : "r" (x));
    8000002a:	30479073          	csrw	mie,a5
static inline uint64
r_menvcfg()
{
  uint64 x;
  // asm volatile("csrr %0, menvcfg" : "=r" (x) );
  asm volatile("csrr %0, 0x30a" : "=r" (x) );
    8000002e:	30a027f3          	csrr	a5,0x30a
  
  // enable the sstc extension (i.e. stimecmp).
  w_menvcfg(r_menvcfg() | (1L << 63)); 
    80000032:	577d                	li	a4,-1
    80000034:	177e                	sll	a4,a4,0x3f
    80000036:	8fd9                	or	a5,a5,a4

static inline void 
w_menvcfg(uint64 x)
{
  // asm volatile("csrw menvcfg, %0" : : "r" (x));
  asm volatile("csrw 0x30a, %0" : : "r" (x));
    80000038:	30a79073          	csrw	0x30a,a5

static inline uint64
r_mcounteren()
{
  uint64 x;
  asm volatile("csrr %0, mcounteren" : "=r" (x) );
    8000003c:	306027f3          	csrr	a5,mcounteren
  
  // allow supervisor to use stimecmp and time.
  w_mcounteren(r_mcounteren() | 2);
    80000040:	0027e793          	or	a5,a5,2
  asm volatile("csrw mcounteren, %0" : : "r" (x));
    80000044:	30679073          	csrw	mcounteren,a5
// machine-mode cycle counter
static inline uint64
r_time()
{
  uint64 x;
  asm volatile("csrr %0, time" : "=r" (x) );
    80000048:	c01027f3          	rdtime	a5
  
  // ask for the very first timer interrupt.
  w_stimecmp(r_time() + 1000000);
    8000004c:	000f4737          	lui	a4,0xf4
    80000050:	24070713          	add	a4,a4,576 # f4240 <_entry-0x7ff0bdc0>
    80000054:	97ba                	add	a5,a5,a4
  asm volatile("csrw 0x14d, %0" : : "r" (x));
    80000056:	14d79073          	csrw	stimecmp,a5
}
    8000005a:	6422                	ld	s0,8(sp)
    8000005c:	0141                	add	sp,sp,16
    8000005e:	8082                	ret

0000000080000060 <start>:
{
    80000060:	1141                	add	sp,sp,-16
    80000062:	e406                	sd	ra,8(sp)
    80000064:	e022                	sd	s0,0(sp)
    80000066:	0800                	add	s0,sp,16
  asm volatile("csrr %0, mstatus" : "=r" (x) );
    80000068:	300027f3          	csrr	a5,mstatus
  x &= ~MSTATUS_MPP_MASK;
    8000006c:	7779                	lui	a4,0xffffe
    8000006e:	7ff70713          	add	a4,a4,2047 # ffffffffffffe7ff <end+0xffffffff7ffdda0f>
    80000072:	8ff9                	and	a5,a5,a4
  x |= MSTATUS_MPP_S;
    80000074:	6705                	lui	a4,0x1
    80000076:	80070713          	add	a4,a4,-2048 # 800 <_entry-0x7ffff800>
    8000007a:	8fd9                	or	a5,a5,a4
  asm volatile("csrw mstatus, %0" : : "r" (x));
    8000007c:	30079073          	csrw	mstatus,a5
  asm volatile("csrw mepc, %0" : : "r" (x));
    80000080:	00001797          	auipc	a5,0x1
    80000084:	d6878793          	add	a5,a5,-664 # 80000de8 <main>
    80000088:	34179073          	csrw	mepc,a5
  asm volatile("csrw satp, %0" : : "r" (x));
    8000008c:	4781                	li	a5,0
    8000008e:	18079073          	csrw	satp,a5
  asm volatile("csrw medeleg, %0" : : "r" (x));
    80000092:	67c1                	lui	a5,0x10
    80000094:	17fd                	add	a5,a5,-1 # ffff <_entry-0x7fff0001>
    80000096:	30279073          	csrw	medeleg,a5
  asm volatile("csrw mideleg, %0" : : "r" (x));
    8000009a:	30379073          	csrw	mideleg,a5
  asm volatile("csrr %0, sie" : "=r" (x) );
    8000009e:	104027f3          	csrr	a5,sie
  w_sie(r_sie() | SIE_SEIE | SIE_STIE);
    800000a2:	2207e793          	or	a5,a5,544
  asm volatile("csrw sie, %0" : : "r" (x));
    800000a6:	10479073          	csrw	sie,a5
  asm volatile("csrw pmpaddr0, %0" : : "r" (x));
    800000aa:	57fd                	li	a5,-1
    800000ac:	83a9                	srl	a5,a5,0xa
    800000ae:	3b079073          	csrw	pmpaddr0,a5
  asm volatile("csrw pmpcfg0, %0" : : "r" (x));
    800000b2:	47bd                	li	a5,15
    800000b4:	3a079073          	csrw	pmpcfg0,a5
  timerinit();
    800000b8:	f65ff0ef          	jal	8000001c <timerinit>
  asm volatile("csrr %0, mhartid" : "=r" (x) );
    800000bc:	f14027f3          	csrr	a5,mhartid
  w_tp(id);
    800000c0:	2781                	sext.w	a5,a5
}

static inline void 
w_tp(uint64 x)
{
  asm volatile("mv tp, %0" : : "r" (x));
    800000c2:	823e                	mv	tp,a5
  asm volatile("mret");
    800000c4:	30200073          	mret
}
    800000c8:	60a2                	ld	ra,8(sp)
    800000ca:	6402                	ld	s0,0(sp)
    800000cc:	0141                	add	sp,sp,16
    800000ce:	8082                	ret

00000000800000d0 <consolewrite>:
// user write() system calls to the console go here.
// uses sleep() and UART interrupts.
//
int
consolewrite(int user_src, uint64 src, int n)
{
    800000d0:	7119                	add	sp,sp,-128
    800000d2:	fc86                	sd	ra,120(sp)
    800000d4:	f8a2                	sd	s0,112(sp)
    800000d6:	f4a6                	sd	s1,104(sp)
    800000d8:	f0ca                	sd	s2,96(sp)
    800000da:	ecce                	sd	s3,88(sp)
    800000dc:	e8d2                	sd	s4,80(sp)
    800000de:	e4d6                	sd	s5,72(sp)
    800000e0:	e0da                	sd	s6,64(sp)
    800000e2:	fc5e                	sd	s7,56(sp)
    800000e4:	f862                	sd	s8,48(sp)
    800000e6:	f466                	sd	s9,40(sp)
    800000e8:	0100                	add	s0,sp,128
  char buf[32]; // move batches from user space to uart.
  int i = 0;

  while(i < n){
    800000ea:	04c05963          	blez	a2,8000013c <consolewrite+0x6c>
    800000ee:	8aaa                	mv	s5,a0
    800000f0:	8b2e                	mv	s6,a1
    800000f2:	8a32                	mv	s4,a2
  int i = 0;
    800000f4:	4481                	li	s1,0
    int nn = sizeof(buf);
    if(nn > n - i)
    800000f6:	02000c13          	li	s8,32
    800000fa:	02000c93          	li	s9,32
      nn = n - i;
    if(either_copyin(buf, user_src, src+i, nn) == -1)
    800000fe:	5bfd                	li	s7,-1
    80000100:	a035                	j	8000012c <consolewrite+0x5c>
    if(nn > n - i)
    80000102:	0009099b          	sext.w	s3,s2
    if(either_copyin(buf, user_src, src+i, nn) == -1)
    80000106:	86ce                	mv	a3,s3
    80000108:	01648633          	add	a2,s1,s6
    8000010c:	85d6                	mv	a1,s5
    8000010e:	f8040513          	add	a0,s0,-128
    80000112:	134020ef          	jal	80002246 <either_copyin>
    80000116:	03750463          	beq	a0,s7,8000013e <consolewrite+0x6e>
      break;
    uartwrite(buf, nn);
    8000011a:	85ce                	mv	a1,s3
    8000011c:	f8040513          	add	a0,s0,-128
    80000120:	72a000ef          	jal	8000084a <uartwrite>
    i += nn;
    80000124:	009904bb          	addw	s1,s2,s1
  while(i < n){
    80000128:	0144db63          	bge	s1,s4,8000013e <consolewrite+0x6e>
    if(nn > n - i)
    8000012c:	409a093b          	subw	s2,s4,s1
    80000130:	0009079b          	sext.w	a5,s2
    80000134:	fcfc57e3          	bge	s8,a5,80000102 <consolewrite+0x32>
    80000138:	8966                	mv	s2,s9
    8000013a:	b7e1                	j	80000102 <consolewrite+0x32>
  int i = 0;
    8000013c:	4481                	li	s1,0
  }

  return i;
}
    8000013e:	8526                	mv	a0,s1
    80000140:	70e6                	ld	ra,120(sp)
    80000142:	7446                	ld	s0,112(sp)
    80000144:	74a6                	ld	s1,104(sp)
    80000146:	7906                	ld	s2,96(sp)
    80000148:	69e6                	ld	s3,88(sp)
    8000014a:	6a46                	ld	s4,80(sp)
    8000014c:	6aa6                	ld	s5,72(sp)
    8000014e:	6b06                	ld	s6,64(sp)
    80000150:	7be2                	ld	s7,56(sp)
    80000152:	7c42                	ld	s8,48(sp)
    80000154:	7ca2                	ld	s9,40(sp)
    80000156:	6109                	add	sp,sp,128
    80000158:	8082                	ret

000000008000015a <consoleread>:
// user_dst indicates whether dst is a user
// or kernel address.
//
int
consoleread(int user_dst, uint64 dst, int n)
{
    8000015a:	711d                	add	sp,sp,-96
    8000015c:	ec86                	sd	ra,88(sp)
    8000015e:	e8a2                	sd	s0,80(sp)
    80000160:	e4a6                	sd	s1,72(sp)
    80000162:	e0ca                	sd	s2,64(sp)
    80000164:	fc4e                	sd	s3,56(sp)
    80000166:	f852                	sd	s4,48(sp)
    80000168:	f456                	sd	s5,40(sp)
    8000016a:	f05a                	sd	s6,32(sp)
    8000016c:	ec5e                	sd	s7,24(sp)
    8000016e:	1080                	add	s0,sp,96
    80000170:	8aaa                	mv	s5,a0
    80000172:	8a2e                	mv	s4,a1
    80000174:	89b2                	mv	s3,a2
  uint target;
  int c;
  char cbuf;

  target = n;
    80000176:	00060b1b          	sext.w	s6,a2
  acquire(&cons.lock);
    8000017a:	0000f517          	auipc	a0,0xf
    8000017e:	70650513          	add	a0,a0,1798 # 8000f880 <cons>
    80000182:	1f3000ef          	jal	80000b74 <acquire>
  while(n > 0){
    // wait until interrupt handler has put some
    // input into cons.buffer.
    while(cons.r == cons.w){
    80000186:	0000f497          	auipc	s1,0xf
    8000018a:	6fa48493          	add	s1,s1,1786 # 8000f880 <cons>
      if(killed(myproc())){
        release(&cons.lock);
        return -1;
      }
      sleep(&cons.r, &cons.lock);
    8000018e:	0000f917          	auipc	s2,0xf
    80000192:	78a90913          	add	s2,s2,1930 # 8000f918 <cons+0x98>
  while(n > 0){
    80000196:	07305a63          	blez	s3,8000020a <consoleread+0xb0>
    while(cons.r == cons.w){
    8000019a:	0984a783          	lw	a5,152(s1)
    8000019e:	09c4a703          	lw	a4,156(s1)
    800001a2:	02f71163          	bne	a4,a5,800001c4 <consoleread+0x6a>
      if(killed(myproc())){
    800001a6:	664010ef          	jal	8000180a <myproc>
    800001aa:	72f010ef          	jal	800020d8 <killed>
    800001ae:	e53d                	bnez	a0,8000021c <consoleread+0xc2>
      sleep(&cons.r, &cons.lock);
    800001b0:	85a6                	mv	a1,s1
    800001b2:	854a                	mv	a0,s2
    800001b4:	4ed010ef          	jal	80001ea0 <sleep>
    while(cons.r == cons.w){
    800001b8:	0984a783          	lw	a5,152(s1)
    800001bc:	09c4a703          	lw	a4,156(s1)
    800001c0:	fef703e3          	beq	a4,a5,800001a6 <consoleread+0x4c>
    }

    c = cons.buf[cons.r++ % INPUT_BUF_SIZE];
    800001c4:	0000f717          	auipc	a4,0xf
    800001c8:	6bc70713          	add	a4,a4,1724 # 8000f880 <cons>
    800001cc:	0017869b          	addw	a3,a5,1
    800001d0:	08d72c23          	sw	a3,152(a4)
    800001d4:	07f7f693          	and	a3,a5,127
    800001d8:	9736                	add	a4,a4,a3
    800001da:	01874703          	lbu	a4,24(a4)
    800001de:	00070b9b          	sext.w	s7,a4

    if(c == C('D')){  // end-of-file
    800001e2:	4691                	li	a3,4
    800001e4:	04db8e63          	beq	s7,a3,80000240 <consoleread+0xe6>
      }
      break;
    }

    // copy the input byte to the user-space buffer.
    cbuf = c;
    800001e8:	fae407a3          	sb	a4,-81(s0)
    if(either_copyout(user_dst, dst, &cbuf, 1) == -1)
    800001ec:	4685                	li	a3,1
    800001ee:	faf40613          	add	a2,s0,-81
    800001f2:	85d2                	mv	a1,s4
    800001f4:	8556                	mv	a0,s5
    800001f6:	006020ef          	jal	800021fc <either_copyout>
    800001fa:	57fd                	li	a5,-1
    800001fc:	00f50763          	beq	a0,a5,8000020a <consoleread+0xb0>
      break;

    dst++;
    80000200:	0a05                	add	s4,s4,1
    --n;
    80000202:	39fd                	addw	s3,s3,-1

    if(c == '\n'){
    80000204:	47a9                	li	a5,10
    80000206:	f8fb98e3          	bne	s7,a5,80000196 <consoleread+0x3c>
      // a whole line has arrived, return to
      // the user-level read().
      break;
    }
  }
  release(&cons.lock);
    8000020a:	0000f517          	auipc	a0,0xf
    8000020e:	67650513          	add	a0,a0,1654 # 8000f880 <cons>
    80000212:	1fb000ef          	jal	80000c0c <release>

  return target - n;
    80000216:	413b053b          	subw	a0,s6,s3
    8000021a:	a801                	j	8000022a <consoleread+0xd0>
        release(&cons.lock);
    8000021c:	0000f517          	auipc	a0,0xf
    80000220:	66450513          	add	a0,a0,1636 # 8000f880 <cons>
    80000224:	1e9000ef          	jal	80000c0c <release>
        return -1;
    80000228:	557d                	li	a0,-1
}
    8000022a:	60e6                	ld	ra,88(sp)
    8000022c:	6446                	ld	s0,80(sp)
    8000022e:	64a6                	ld	s1,72(sp)
    80000230:	6906                	ld	s2,64(sp)
    80000232:	79e2                	ld	s3,56(sp)
    80000234:	7a42                	ld	s4,48(sp)
    80000236:	7aa2                	ld	s5,40(sp)
    80000238:	7b02                	ld	s6,32(sp)
    8000023a:	6be2                	ld	s7,24(sp)
    8000023c:	6125                	add	sp,sp,96
    8000023e:	8082                	ret
      if(n < target){
    80000240:	0009871b          	sext.w	a4,s3
    80000244:	fd6773e3          	bgeu	a4,s6,8000020a <consoleread+0xb0>
        cons.r--;
    80000248:	0000f717          	auipc	a4,0xf
    8000024c:	6cf72823          	sw	a5,1744(a4) # 8000f918 <cons+0x98>
    80000250:	bf6d                	j	8000020a <consoleread+0xb0>

0000000080000252 <consputc>:
{
    80000252:	1141                	add	sp,sp,-16
    80000254:	e406                	sd	ra,8(sp)
    80000256:	e022                	sd	s0,0(sp)
    80000258:	0800                	add	s0,sp,16
  if(c == BACKSPACE){
    8000025a:	10000793          	li	a5,256
    8000025e:	00f50863          	beq	a0,a5,8000026e <consputc+0x1c>
    uartputc_sync(c);
    80000262:	67c000ef          	jal	800008de <uartputc_sync>
}
    80000266:	60a2                	ld	ra,8(sp)
    80000268:	6402                	ld	s0,0(sp)
    8000026a:	0141                	add	sp,sp,16
    8000026c:	8082                	ret
    uartputc_sync('\b'); uartputc_sync(' '); uartputc_sync('\b');
    8000026e:	4521                	li	a0,8
    80000270:	66e000ef          	jal	800008de <uartputc_sync>
    80000274:	02000513          	li	a0,32
    80000278:	666000ef          	jal	800008de <uartputc_sync>
    8000027c:	4521                	li	a0,8
    8000027e:	660000ef          	jal	800008de <uartputc_sync>
    80000282:	b7d5                	j	80000266 <consputc+0x14>

0000000080000284 <consoleintr>:
// do erase/kill processing, append to cons.buf,
// wake up consoleread() if a whole line has arrived.
//
void
consoleintr(int c)
{
    80000284:	1101                	add	sp,sp,-32
    80000286:	ec06                	sd	ra,24(sp)
    80000288:	e822                	sd	s0,16(sp)
    8000028a:	e426                	sd	s1,8(sp)
    8000028c:	e04a                	sd	s2,0(sp)
    8000028e:	1000                	add	s0,sp,32
    80000290:	84aa                	mv	s1,a0
  acquire(&cons.lock);
    80000292:	0000f517          	auipc	a0,0xf
    80000296:	5ee50513          	add	a0,a0,1518 # 8000f880 <cons>
    8000029a:	0db000ef          	jal	80000b74 <acquire>

  switch(c){
    8000029e:	47d5                	li	a5,21
    800002a0:	0af48063          	beq	s1,a5,80000340 <consoleintr+0xbc>
    800002a4:	0297c663          	blt	a5,s1,800002d0 <consoleintr+0x4c>
    800002a8:	47a1                	li	a5,8
    800002aa:	0cf48f63          	beq	s1,a5,80000388 <consoleintr+0x104>
    800002ae:	47c1                	li	a5,16
    800002b0:	10f49063          	bne	s1,a5,800003b0 <consoleintr+0x12c>
  case C('P'):  // Print process list.
    procdump();
    800002b4:	080020ef          	jal	80002334 <procdump>
      }
    }
    break;
  }
  
  release(&cons.lock);
    800002b8:	0000f517          	auipc	a0,0xf
    800002bc:	5c850513          	add	a0,a0,1480 # 8000f880 <cons>
    800002c0:	14d000ef          	jal	80000c0c <release>
}
    800002c4:	60e2                	ld	ra,24(sp)
    800002c6:	6442                	ld	s0,16(sp)
    800002c8:	64a2                	ld	s1,8(sp)
    800002ca:	6902                	ld	s2,0(sp)
    800002cc:	6105                	add	sp,sp,32
    800002ce:	8082                	ret
  switch(c){
    800002d0:	07f00793          	li	a5,127
    800002d4:	0af48a63          	beq	s1,a5,80000388 <consoleintr+0x104>
    if(c != 0 && cons.e-cons.r < INPUT_BUF_SIZE){
    800002d8:	0000f717          	auipc	a4,0xf
    800002dc:	5a870713          	add	a4,a4,1448 # 8000f880 <cons>
    800002e0:	0a072783          	lw	a5,160(a4)
    800002e4:	09872703          	lw	a4,152(a4)
    800002e8:	9f99                	subw	a5,a5,a4
    800002ea:	07f00713          	li	a4,127
    800002ee:	fcf765e3          	bltu	a4,a5,800002b8 <consoleintr+0x34>
      c = (c == '\r') ? '\n' : c;
    800002f2:	47b5                	li	a5,13
    800002f4:	0cf48163          	beq	s1,a5,800003b6 <consoleintr+0x132>
      consputc(c);
    800002f8:	8526                	mv	a0,s1
    800002fa:	f59ff0ef          	jal	80000252 <consputc>
      cons.buf[cons.e++ % INPUT_BUF_SIZE] = c;
    800002fe:	0000f797          	auipc	a5,0xf
    80000302:	58278793          	add	a5,a5,1410 # 8000f880 <cons>
    80000306:	0a07a683          	lw	a3,160(a5)
    8000030a:	0016871b          	addw	a4,a3,1
    8000030e:	0007061b          	sext.w	a2,a4
    80000312:	0ae7a023          	sw	a4,160(a5)
    80000316:	07f6f693          	and	a3,a3,127
    8000031a:	97b6                	add	a5,a5,a3
    8000031c:	00978c23          	sb	s1,24(a5)
      if(c == '\n' || c == C('D') || cons.e-cons.r == INPUT_BUF_SIZE){
    80000320:	47a9                	li	a5,10
    80000322:	0af48f63          	beq	s1,a5,800003e0 <consoleintr+0x15c>
    80000326:	4791                	li	a5,4
    80000328:	0af48c63          	beq	s1,a5,800003e0 <consoleintr+0x15c>
    8000032c:	0000f797          	auipc	a5,0xf
    80000330:	5ec7a783          	lw	a5,1516(a5) # 8000f918 <cons+0x98>
    80000334:	9f1d                	subw	a4,a4,a5
    80000336:	08000793          	li	a5,128
    8000033a:	f6f71fe3          	bne	a4,a5,800002b8 <consoleintr+0x34>
    8000033e:	a04d                	j	800003e0 <consoleintr+0x15c>
    while(cons.e != cons.w &&
    80000340:	0000f717          	auipc	a4,0xf
    80000344:	54070713          	add	a4,a4,1344 # 8000f880 <cons>
    80000348:	0a072783          	lw	a5,160(a4)
    8000034c:	09c72703          	lw	a4,156(a4)
          cons.buf[(cons.e-1) % INPUT_BUF_SIZE] != '\n'){
    80000350:	0000f497          	auipc	s1,0xf
    80000354:	53048493          	add	s1,s1,1328 # 8000f880 <cons>
    while(cons.e != cons.w &&
    80000358:	4929                	li	s2,10
    8000035a:	f4f70fe3          	beq	a4,a5,800002b8 <consoleintr+0x34>
          cons.buf[(cons.e-1) % INPUT_BUF_SIZE] != '\n'){
    8000035e:	37fd                	addw	a5,a5,-1
    80000360:	07f7f713          	and	a4,a5,127
    80000364:	9726                	add	a4,a4,s1
    while(cons.e != cons.w &&
    80000366:	01874703          	lbu	a4,24(a4)
    8000036a:	f52707e3          	beq	a4,s2,800002b8 <consoleintr+0x34>
      cons.e--;
    8000036e:	0af4a023          	sw	a5,160(s1)
      consputc(BACKSPACE);
    80000372:	10000513          	li	a0,256
    80000376:	eddff0ef          	jal	80000252 <consputc>
    while(cons.e != cons.w &&
    8000037a:	0a04a783          	lw	a5,160(s1)
    8000037e:	09c4a703          	lw	a4,156(s1)
    80000382:	fcf71ee3          	bne	a4,a5,8000035e <consoleintr+0xda>
    80000386:	bf0d                	j	800002b8 <consoleintr+0x34>
    if(cons.e != cons.w){
    80000388:	0000f717          	auipc	a4,0xf
    8000038c:	4f870713          	add	a4,a4,1272 # 8000f880 <cons>
    80000390:	0a072783          	lw	a5,160(a4)
    80000394:	09c72703          	lw	a4,156(a4)
    80000398:	f2f700e3          	beq	a4,a5,800002b8 <consoleintr+0x34>
      cons.e--;
    8000039c:	37fd                	addw	a5,a5,-1
    8000039e:	0000f717          	auipc	a4,0xf
    800003a2:	58f72123          	sw	a5,1410(a4) # 8000f920 <cons+0xa0>
      consputc(BACKSPACE);
    800003a6:	10000513          	li	a0,256
    800003aa:	ea9ff0ef          	jal	80000252 <consputc>
    800003ae:	b729                	j	800002b8 <consoleintr+0x34>
    if(c != 0 && cons.e-cons.r < INPUT_BUF_SIZE){
    800003b0:	f00484e3          	beqz	s1,800002b8 <consoleintr+0x34>
    800003b4:	b715                	j	800002d8 <consoleintr+0x54>
      consputc(c);
    800003b6:	4529                	li	a0,10
    800003b8:	e9bff0ef          	jal	80000252 <consputc>
      cons.buf[cons.e++ % INPUT_BUF_SIZE] = c;
    800003bc:	0000f797          	auipc	a5,0xf
    800003c0:	4c478793          	add	a5,a5,1220 # 8000f880 <cons>
    800003c4:	0a07a703          	lw	a4,160(a5)
    800003c8:	0017069b          	addw	a3,a4,1
    800003cc:	0006861b          	sext.w	a2,a3
    800003d0:	0ad7a023          	sw	a3,160(a5)
    800003d4:	07f77713          	and	a4,a4,127
    800003d8:	97ba                	add	a5,a5,a4
    800003da:	4729                	li	a4,10
    800003dc:	00e78c23          	sb	a4,24(a5)
        cons.w = cons.e;
    800003e0:	0000f797          	auipc	a5,0xf
    800003e4:	52c7ae23          	sw	a2,1340(a5) # 8000f91c <cons+0x9c>
        wakeup(&cons.r);
    800003e8:	0000f517          	auipc	a0,0xf
    800003ec:	53050513          	add	a0,a0,1328 # 8000f918 <cons+0x98>
    800003f0:	2fd010ef          	jal	80001eec <wakeup>
    800003f4:	b5d1                	j	800002b8 <consoleintr+0x34>

00000000800003f6 <consoleinit>:

void
consoleinit(void)
{
    800003f6:	1141                	add	sp,sp,-16
    800003f8:	e406                	sd	ra,8(sp)
    800003fa:	e022                	sd	s0,0(sp)
    800003fc:	0800                	add	s0,sp,16
  initlock(&cons.lock, "cons");
    800003fe:	00007597          	auipc	a1,0x7
    80000402:	c1258593          	add	a1,a1,-1006 # 80007010 <etext+0x10>
    80000406:	0000f517          	auipc	a0,0xf
    8000040a:	47a50513          	add	a0,a0,1146 # 8000f880 <cons>
    8000040e:	6e6000ef          	jal	80000af4 <initlock>

  uartinit();
    80000412:	3ec000ef          	jal	800007fe <uartinit>

  // connect read and write system calls
  // to consoleread and consolewrite.
  devsw[CONSOLE].read = consoleread;
    80000416:	00020797          	auipc	a5,0x20
    8000041a:	84278793          	add	a5,a5,-1982 # 8001fc58 <devsw>
    8000041e:	00000717          	auipc	a4,0x0
    80000422:	d3c70713          	add	a4,a4,-708 # 8000015a <consoleread>
    80000426:	eb98                	sd	a4,16(a5)
  devsw[CONSOLE].write = consolewrite;
    80000428:	00000717          	auipc	a4,0x0
    8000042c:	ca870713          	add	a4,a4,-856 # 800000d0 <consolewrite>
    80000430:	ef98                	sd	a4,24(a5)
}
    80000432:	60a2                	ld	ra,8(sp)
    80000434:	6402                	ld	s0,0(sp)
    80000436:	0141                	add	sp,sp,16
    80000438:	8082                	ret

000000008000043a <printint>:

static char digits[] = "0123456789abcdef";

static void
printint(long long xx, int base, int sign)
{
    8000043a:	7139                	add	sp,sp,-64
    8000043c:	fc06                	sd	ra,56(sp)
    8000043e:	f822                	sd	s0,48(sp)
    80000440:	f426                	sd	s1,40(sp)
    80000442:	f04a                	sd	s2,32(sp)
    80000444:	0080                	add	s0,sp,64
  char buf[20];
  int i;
  unsigned long long x;

  if(sign && (sign = (xx < 0)))
    80000446:	c219                	beqz	a2,8000044c <printint+0x12>
    80000448:	06054e63          	bltz	a0,800004c4 <printint+0x8a>
    x = -xx;
  else
    x = xx;
    8000044c:	4881                	li	a7,0
    8000044e:	fc840693          	add	a3,s0,-56

  i = 0;
    80000452:	4781                	li	a5,0
  do {
    buf[i++] = digits[x % base];
    80000454:	00007617          	auipc	a2,0x7
    80000458:	be460613          	add	a2,a2,-1052 # 80007038 <digits>
    8000045c:	883e                	mv	a6,a5
    8000045e:	2785                	addw	a5,a5,1
    80000460:	02b57733          	remu	a4,a0,a1
    80000464:	9732                	add	a4,a4,a2
    80000466:	00074703          	lbu	a4,0(a4)
    8000046a:	00e68023          	sb	a4,0(a3)
  } while((x /= base) != 0);
    8000046e:	872a                	mv	a4,a0
    80000470:	02b55533          	divu	a0,a0,a1
    80000474:	0685                	add	a3,a3,1
    80000476:	feb773e3          	bgeu	a4,a1,8000045c <printint+0x22>

  if(sign)
    8000047a:	00088a63          	beqz	a7,8000048e <printint+0x54>
    buf[i++] = '-';
    8000047e:	1781                	add	a5,a5,-32
    80000480:	97a2                	add	a5,a5,s0
    80000482:	02d00713          	li	a4,45
    80000486:	fee78423          	sb	a4,-24(a5)
    8000048a:	0028079b          	addw	a5,a6,2

  while(--i >= 0)
    8000048e:	02f05563          	blez	a5,800004b8 <printint+0x7e>
    80000492:	fc840713          	add	a4,s0,-56
    80000496:	00f704b3          	add	s1,a4,a5
    8000049a:	fff70913          	add	s2,a4,-1
    8000049e:	993e                	add	s2,s2,a5
    800004a0:	37fd                	addw	a5,a5,-1
    800004a2:	1782                	sll	a5,a5,0x20
    800004a4:	9381                	srl	a5,a5,0x20
    800004a6:	40f90933          	sub	s2,s2,a5
    consputc(buf[i]);
    800004aa:	fff4c503          	lbu	a0,-1(s1)
    800004ae:	da5ff0ef          	jal	80000252 <consputc>
  while(--i >= 0)
    800004b2:	14fd                	add	s1,s1,-1
    800004b4:	ff249be3          	bne	s1,s2,800004aa <printint+0x70>
}
    800004b8:	70e2                	ld	ra,56(sp)
    800004ba:	7442                	ld	s0,48(sp)
    800004bc:	74a2                	ld	s1,40(sp)
    800004be:	7902                	ld	s2,32(sp)
    800004c0:	6121                	add	sp,sp,64
    800004c2:	8082                	ret
    x = -xx;
    800004c4:	40a00533          	neg	a0,a0
  if(sign && (sign = (xx < 0)))
    800004c8:	4885                	li	a7,1
    x = -xx;
    800004ca:	b751                	j	8000044e <printint+0x14>

00000000800004cc <printf>:
}

// Print to the console.
int
printf(char *fmt, ...)
{
    800004cc:	7131                	add	sp,sp,-192
    800004ce:	fc86                	sd	ra,120(sp)
    800004d0:	f8a2                	sd	s0,112(sp)
    800004d2:	f4a6                	sd	s1,104(sp)
    800004d4:	f0ca                	sd	s2,96(sp)
    800004d6:	ecce                	sd	s3,88(sp)
    800004d8:	e8d2                	sd	s4,80(sp)
    800004da:	e4d6                	sd	s5,72(sp)
    800004dc:	e0da                	sd	s6,64(sp)
    800004de:	fc5e                	sd	s7,56(sp)
    800004e0:	f862                	sd	s8,48(sp)
    800004e2:	f466                	sd	s9,40(sp)
    800004e4:	f06a                	sd	s10,32(sp)
    800004e6:	ec6e                	sd	s11,24(sp)
    800004e8:	0100                	add	s0,sp,128
    800004ea:	8a2a                	mv	s4,a0
    800004ec:	e40c                	sd	a1,8(s0)
    800004ee:	e810                	sd	a2,16(s0)
    800004f0:	ec14                	sd	a3,24(s0)
    800004f2:	f018                	sd	a4,32(s0)
    800004f4:	f41c                	sd	a5,40(s0)
    800004f6:	03043823          	sd	a6,48(s0)
    800004fa:	03143c23          	sd	a7,56(s0)
  va_list ap;
  int i, cx, c0, c1, c2;
  char *s;

  if(panicking == 0)
    800004fe:	00007797          	auipc	a5,0x7
    80000502:	3567a783          	lw	a5,854(a5) # 80007854 <panicking>
    80000506:	c79d                	beqz	a5,80000534 <printf+0x68>
    acquire(&pr.lock);

  va_start(ap, fmt);
    80000508:	00840793          	add	a5,s0,8
    8000050c:	f8f43423          	sd	a5,-120(s0)
  for(i = 0; (cx = fmt[i] & 0xff) != 0; i++){
    80000510:	000a4503          	lbu	a0,0(s4)
    80000514:	24050963          	beqz	a0,80000766 <printf+0x29a>
    80000518:	4981                	li	s3,0
    if(cx != '%'){
    8000051a:	02500a93          	li	s5,37
    i++;
    c0 = fmt[i+0] & 0xff;
    c1 = c2 = 0;
    if(c0) c1 = fmt[i+1] & 0xff;
    if(c1) c2 = fmt[i+2] & 0xff;
    if(c0 == 'd'){
    8000051e:	06400b13          	li	s6,100
      printint(va_arg(ap, int), 10, 1);
    } else if(c0 == 'l' && c1 == 'd'){
    80000522:	06c00c13          	li	s8,108
      printint(va_arg(ap, uint64), 10, 1);
      i += 1;
    } else if(c0 == 'l' && c1 == 'l' && c2 == 'd'){
      printint(va_arg(ap, uint64), 10, 1);
      i += 2;
    } else if(c0 == 'u'){
    80000526:	07500c93          	li	s9,117
      printint(va_arg(ap, uint64), 10, 0);
      i += 1;
    } else if(c0 == 'l' && c1 == 'l' && c2 == 'u'){
      printint(va_arg(ap, uint64), 10, 0);
      i += 2;
    } else if(c0 == 'x'){
    8000052a:	07800d13          	li	s10,120
      printint(va_arg(ap, uint64), 16, 0);
      i += 1;
    } else if(c0 == 'l' && c1 == 'l' && c2 == 'x'){
      printint(va_arg(ap, uint64), 16, 0);
      i += 2;
    } else if(c0 == 'p'){
    8000052e:	07000d93          	li	s11,112
    80000532:	a01d                	j	80000558 <printf+0x8c>
    acquire(&pr.lock);
    80000534:	0000f517          	auipc	a0,0xf
    80000538:	3f450513          	add	a0,a0,1012 # 8000f928 <pr>
    8000053c:	638000ef          	jal	80000b74 <acquire>
    80000540:	b7e1                	j	80000508 <printf+0x3c>
      consputc(cx);
    80000542:	d11ff0ef          	jal	80000252 <consputc>
      continue;
    80000546:	84ce                	mv	s1,s3
  for(i = 0; (cx = fmt[i] & 0xff) != 0; i++){
    80000548:	0014899b          	addw	s3,s1,1
    8000054c:	013a07b3          	add	a5,s4,s3
    80000550:	0007c503          	lbu	a0,0(a5)
    80000554:	20050963          	beqz	a0,80000766 <printf+0x29a>
    if(cx != '%'){
    80000558:	ff5515e3          	bne	a0,s5,80000542 <printf+0x76>
    i++;
    8000055c:	0019849b          	addw	s1,s3,1
    c0 = fmt[i+0] & 0xff;
    80000560:	009a07b3          	add	a5,s4,s1
    80000564:	0007c903          	lbu	s2,0(a5)
    if(c0) c1 = fmt[i+1] & 0xff;
    80000568:	1e090f63          	beqz	s2,80000766 <printf+0x29a>
    8000056c:	0017c783          	lbu	a5,1(a5)
    c1 = c2 = 0;
    80000570:	86be                	mv	a3,a5
    if(c1) c2 = fmt[i+2] & 0xff;
    80000572:	c789                	beqz	a5,8000057c <printf+0xb0>
    80000574:	009a0733          	add	a4,s4,s1
    80000578:	00274683          	lbu	a3,2(a4)
    if(c0 == 'd'){
    8000057c:	03690963          	beq	s2,s6,800005ae <printf+0xe2>
    } else if(c0 == 'l' && c1 == 'd'){
    80000580:	05890363          	beq	s2,s8,800005c6 <printf+0xfa>
    } else if(c0 == 'u'){
    80000584:	0d990663          	beq	s2,s9,80000650 <printf+0x184>
    } else if(c0 == 'x'){
    80000588:	11a90d63          	beq	s2,s10,800006a2 <printf+0x1d6>
    } else if(c0 == 'p'){
    8000058c:	15b90663          	beq	s2,s11,800006d8 <printf+0x20c>
      printptr(va_arg(ap, uint64));
    } else if(c0 == 'c'){
    80000590:	06300793          	li	a5,99
    80000594:	18f90363          	beq	s2,a5,8000071a <printf+0x24e>
      consputc(va_arg(ap, uint));
    } else if(c0 == 's'){
    80000598:	07300793          	li	a5,115
    8000059c:	18f90963          	beq	s2,a5,8000072e <printf+0x262>
      if((s = va_arg(ap, char*)) == 0)
        s = "(null)";
      for(; *s; s++)
        consputc(*s);
    } else if(c0 == '%'){
    800005a0:	03591b63          	bne	s2,s5,800005d6 <printf+0x10a>
      consputc('%');
    800005a4:	02500513          	li	a0,37
    800005a8:	cabff0ef          	jal	80000252 <consputc>
    800005ac:	bf71                	j	80000548 <printf+0x7c>
      printint(va_arg(ap, int), 10, 1);
    800005ae:	f8843783          	ld	a5,-120(s0)
    800005b2:	00878713          	add	a4,a5,8
    800005b6:	f8e43423          	sd	a4,-120(s0)
    800005ba:	4605                	li	a2,1
    800005bc:	45a9                	li	a1,10
    800005be:	4388                	lw	a0,0(a5)
    800005c0:	e7bff0ef          	jal	8000043a <printint>
    800005c4:	b751                	j	80000548 <printf+0x7c>
    } else if(c0 == 'l' && c1 == 'd'){
    800005c6:	01678f63          	beq	a5,s6,800005e4 <printf+0x118>
    } else if(c0 == 'l' && c1 == 'l' && c2 == 'd'){
    800005ca:	03878b63          	beq	a5,s8,80000600 <printf+0x134>
    } else if(c0 == 'l' && c1 == 'u'){
    800005ce:	09978e63          	beq	a5,s9,8000066a <printf+0x19e>
    } else if(c0 == 'l' && c1 == 'x'){
    800005d2:	0fa78563          	beq	a5,s10,800006bc <printf+0x1f0>
    } else if(c0 == 0){
      break;
    } else {
      // Print unknown % sequence to draw attention.
      consputc('%');
    800005d6:	8556                	mv	a0,s5
    800005d8:	c7bff0ef          	jal	80000252 <consputc>
      consputc(c0);
    800005dc:	854a                	mv	a0,s2
    800005de:	c75ff0ef          	jal	80000252 <consputc>
    800005e2:	b79d                	j	80000548 <printf+0x7c>
      printint(va_arg(ap, uint64), 10, 1);
    800005e4:	f8843783          	ld	a5,-120(s0)
    800005e8:	00878713          	add	a4,a5,8
    800005ec:	f8e43423          	sd	a4,-120(s0)
    800005f0:	4605                	li	a2,1
    800005f2:	45a9                	li	a1,10
    800005f4:	6388                	ld	a0,0(a5)
    800005f6:	e45ff0ef          	jal	8000043a <printint>
      i += 1;
    800005fa:	0029849b          	addw	s1,s3,2
    800005fe:	b7a9                	j	80000548 <printf+0x7c>
    } else if(c0 == 'l' && c1 == 'l' && c2 == 'd'){
    80000600:	06400793          	li	a5,100
    80000604:	02f68863          	beq	a3,a5,80000634 <printf+0x168>
    } else if(c0 == 'l' && c1 == 'l' && c2 == 'u'){
    80000608:	07500793          	li	a5,117
    8000060c:	06f68d63          	beq	a3,a5,80000686 <printf+0x1ba>
    } else if(c0 == 'l' && c1 == 'l' && c2 == 'x'){
    80000610:	07800793          	li	a5,120
    80000614:	fcf691e3          	bne	a3,a5,800005d6 <printf+0x10a>
      printint(va_arg(ap, uint64), 16, 0);
    80000618:	f8843783          	ld	a5,-120(s0)
    8000061c:	00878713          	add	a4,a5,8
    80000620:	f8e43423          	sd	a4,-120(s0)
    80000624:	4601                	li	a2,0
    80000626:	45c1                	li	a1,16
    80000628:	6388                	ld	a0,0(a5)
    8000062a:	e11ff0ef          	jal	8000043a <printint>
      i += 2;
    8000062e:	0039849b          	addw	s1,s3,3
    80000632:	bf19                	j	80000548 <printf+0x7c>
      printint(va_arg(ap, uint64), 10, 1);
    80000634:	f8843783          	ld	a5,-120(s0)
    80000638:	00878713          	add	a4,a5,8
    8000063c:	f8e43423          	sd	a4,-120(s0)
    80000640:	4605                	li	a2,1
    80000642:	45a9                	li	a1,10
    80000644:	6388                	ld	a0,0(a5)
    80000646:	df5ff0ef          	jal	8000043a <printint>
      i += 2;
    8000064a:	0039849b          	addw	s1,s3,3
    8000064e:	bded                	j	80000548 <printf+0x7c>
      printint(va_arg(ap, uint32), 10, 0);
    80000650:	f8843783          	ld	a5,-120(s0)
    80000654:	00878713          	add	a4,a5,8
    80000658:	f8e43423          	sd	a4,-120(s0)
    8000065c:	4601                	li	a2,0
    8000065e:	45a9                	li	a1,10
    80000660:	0007e503          	lwu	a0,0(a5)
    80000664:	dd7ff0ef          	jal	8000043a <printint>
    80000668:	b5c5                	j	80000548 <printf+0x7c>
      printint(va_arg(ap, uint64), 10, 0);
    8000066a:	f8843783          	ld	a5,-120(s0)
    8000066e:	00878713          	add	a4,a5,8
    80000672:	f8e43423          	sd	a4,-120(s0)
    80000676:	4601                	li	a2,0
    80000678:	45a9                	li	a1,10
    8000067a:	6388                	ld	a0,0(a5)
    8000067c:	dbfff0ef          	jal	8000043a <printint>
      i += 1;
    80000680:	0029849b          	addw	s1,s3,2
    80000684:	b5d1                	j	80000548 <printf+0x7c>
      printint(va_arg(ap, uint64), 10, 0);
    80000686:	f8843783          	ld	a5,-120(s0)
    8000068a:	00878713          	add	a4,a5,8
    8000068e:	f8e43423          	sd	a4,-120(s0)
    80000692:	4601                	li	a2,0
    80000694:	45a9                	li	a1,10
    80000696:	6388                	ld	a0,0(a5)
    80000698:	da3ff0ef          	jal	8000043a <printint>
      i += 2;
    8000069c:	0039849b          	addw	s1,s3,3
    800006a0:	b565                	j	80000548 <printf+0x7c>
      printint(va_arg(ap, uint32), 16, 0);
    800006a2:	f8843783          	ld	a5,-120(s0)
    800006a6:	00878713          	add	a4,a5,8
    800006aa:	f8e43423          	sd	a4,-120(s0)
    800006ae:	4601                	li	a2,0
    800006b0:	45c1                	li	a1,16
    800006b2:	0007e503          	lwu	a0,0(a5)
    800006b6:	d85ff0ef          	jal	8000043a <printint>
    800006ba:	b579                	j	80000548 <printf+0x7c>
      printint(va_arg(ap, uint64), 16, 0);
    800006bc:	f8843783          	ld	a5,-120(s0)
    800006c0:	00878713          	add	a4,a5,8
    800006c4:	f8e43423          	sd	a4,-120(s0)
    800006c8:	4601                	li	a2,0
    800006ca:	45c1                	li	a1,16
    800006cc:	6388                	ld	a0,0(a5)
    800006ce:	d6dff0ef          	jal	8000043a <printint>
      i += 1;
    800006d2:	0029849b          	addw	s1,s3,2
    800006d6:	bd8d                	j	80000548 <printf+0x7c>
      printptr(va_arg(ap, uint64));
    800006d8:	f8843783          	ld	a5,-120(s0)
    800006dc:	00878713          	add	a4,a5,8
    800006e0:	f8e43423          	sd	a4,-120(s0)
    800006e4:	0007b983          	ld	s3,0(a5)
  consputc('0');
    800006e8:	03000513          	li	a0,48
    800006ec:	b67ff0ef          	jal	80000252 <consputc>
  consputc('x');
    800006f0:	07800513          	li	a0,120
    800006f4:	b5fff0ef          	jal	80000252 <consputc>
    800006f8:	4941                	li	s2,16
    consputc(digits[x >> (sizeof(uint64) * 8 - 4)]);
    800006fa:	00007b97          	auipc	s7,0x7
    800006fe:	93eb8b93          	add	s7,s7,-1730 # 80007038 <digits>
    80000702:	03c9d793          	srl	a5,s3,0x3c
    80000706:	97de                	add	a5,a5,s7
    80000708:	0007c503          	lbu	a0,0(a5)
    8000070c:	b47ff0ef          	jal	80000252 <consputc>
  for (i = 0; i < (sizeof(uint64) * 2); i++, x <<= 4)
    80000710:	0992                	sll	s3,s3,0x4
    80000712:	397d                	addw	s2,s2,-1
    80000714:	fe0917e3          	bnez	s2,80000702 <printf+0x236>
    80000718:	bd05                	j	80000548 <printf+0x7c>
      consputc(va_arg(ap, uint));
    8000071a:	f8843783          	ld	a5,-120(s0)
    8000071e:	00878713          	add	a4,a5,8
    80000722:	f8e43423          	sd	a4,-120(s0)
    80000726:	4388                	lw	a0,0(a5)
    80000728:	b2bff0ef          	jal	80000252 <consputc>
    8000072c:	bd31                	j	80000548 <printf+0x7c>
      if((s = va_arg(ap, char*)) == 0)
    8000072e:	f8843783          	ld	a5,-120(s0)
    80000732:	00878713          	add	a4,a5,8
    80000736:	f8e43423          	sd	a4,-120(s0)
    8000073a:	0007b903          	ld	s2,0(a5)
    8000073e:	00090d63          	beqz	s2,80000758 <printf+0x28c>
      for(; *s; s++)
    80000742:	00094503          	lbu	a0,0(s2)
    80000746:	e00501e3          	beqz	a0,80000548 <printf+0x7c>
        consputc(*s);
    8000074a:	b09ff0ef          	jal	80000252 <consputc>
      for(; *s; s++)
    8000074e:	0905                	add	s2,s2,1
    80000750:	00094503          	lbu	a0,0(s2)
    80000754:	f97d                	bnez	a0,8000074a <printf+0x27e>
    80000756:	bbcd                	j	80000548 <printf+0x7c>
        s = "(null)";
    80000758:	00007917          	auipc	s2,0x7
    8000075c:	8c090913          	add	s2,s2,-1856 # 80007018 <etext+0x18>
      for(; *s; s++)
    80000760:	02800513          	li	a0,40
    80000764:	b7dd                	j	8000074a <printf+0x27e>
    }

  }
  va_end(ap);

  if(panicking == 0)
    80000766:	00007797          	auipc	a5,0x7
    8000076a:	0ee7a783          	lw	a5,238(a5) # 80007854 <panicking>
    8000076e:	c38d                	beqz	a5,80000790 <printf+0x2c4>
    release(&pr.lock);

  return 0;
}
    80000770:	4501                	li	a0,0
    80000772:	70e6                	ld	ra,120(sp)
    80000774:	7446                	ld	s0,112(sp)
    80000776:	74a6                	ld	s1,104(sp)
    80000778:	7906                	ld	s2,96(sp)
    8000077a:	69e6                	ld	s3,88(sp)
    8000077c:	6a46                	ld	s4,80(sp)
    8000077e:	6aa6                	ld	s5,72(sp)
    80000780:	6b06                	ld	s6,64(sp)
    80000782:	7be2                	ld	s7,56(sp)
    80000784:	7c42                	ld	s8,48(sp)
    80000786:	7ca2                	ld	s9,40(sp)
    80000788:	7d02                	ld	s10,32(sp)
    8000078a:	6de2                	ld	s11,24(sp)
    8000078c:	6129                	add	sp,sp,192
    8000078e:	8082                	ret
    release(&pr.lock);
    80000790:	0000f517          	auipc	a0,0xf
    80000794:	19850513          	add	a0,a0,408 # 8000f928 <pr>
    80000798:	474000ef          	jal	80000c0c <release>
  return 0;
    8000079c:	bfd1                	j	80000770 <printf+0x2a4>

000000008000079e <panic>:

void
panic(char *s)
{
    8000079e:	1101                	add	sp,sp,-32
    800007a0:	ec06                	sd	ra,24(sp)
    800007a2:	e822                	sd	s0,16(sp)
    800007a4:	e426                	sd	s1,8(sp)
    800007a6:	e04a                	sd	s2,0(sp)
    800007a8:	1000                	add	s0,sp,32
    800007aa:	84aa                	mv	s1,a0
  panicking = 1;
    800007ac:	4905                	li	s2,1
    800007ae:	00007797          	auipc	a5,0x7
    800007b2:	0b27a323          	sw	s2,166(a5) # 80007854 <panicking>
  printf("panic: ");
    800007b6:	00007517          	auipc	a0,0x7
    800007ba:	86a50513          	add	a0,a0,-1942 # 80007020 <etext+0x20>
    800007be:	d0fff0ef          	jal	800004cc <printf>
  printf("%s\n", s);
    800007c2:	85a6                	mv	a1,s1
    800007c4:	00007517          	auipc	a0,0x7
    800007c8:	86450513          	add	a0,a0,-1948 # 80007028 <etext+0x28>
    800007cc:	d01ff0ef          	jal	800004cc <printf>
  panicked = 1; // freeze uart output from other CPUs
    800007d0:	00007797          	auipc	a5,0x7
    800007d4:	0927a023          	sw	s2,128(a5) # 80007850 <panicked>
  for(;;)
    800007d8:	a001                	j	800007d8 <panic+0x3a>

00000000800007da <printfinit>:
    ;
}

void
printfinit(void)
{
    800007da:	1141                	add	sp,sp,-16
    800007dc:	e406                	sd	ra,8(sp)
    800007de:	e022                	sd	s0,0(sp)
    800007e0:	0800                	add	s0,sp,16
  initlock(&pr.lock, "pr");
    800007e2:	00007597          	auipc	a1,0x7
    800007e6:	84e58593          	add	a1,a1,-1970 # 80007030 <etext+0x30>
    800007ea:	0000f517          	auipc	a0,0xf
    800007ee:	13e50513          	add	a0,a0,318 # 8000f928 <pr>
    800007f2:	302000ef          	jal	80000af4 <initlock>
}
    800007f6:	60a2                	ld	ra,8(sp)
    800007f8:	6402                	ld	s0,0(sp)
    800007fa:	0141                	add	sp,sp,16
    800007fc:	8082                	ret

00000000800007fe <uartinit>:
extern volatile int panicking; // from printf.c
extern volatile int panicked; // from printf.c

void
uartinit(void)
{
    800007fe:	1141                	add	sp,sp,-16
    80000800:	e406                	sd	ra,8(sp)
    80000802:	e022                	sd	s0,0(sp)
    80000804:	0800                	add	s0,sp,16
  // disable interrupts.
  WriteReg(IER, 0x00);
    80000806:	100007b7          	lui	a5,0x10000
    8000080a:	000780a3          	sb	zero,1(a5) # 10000001 <_entry-0x6fffffff>

  // special mode to set baud rate.
  WriteReg(LCR, LCR_BAUD_LATCH);
    8000080e:	f8000713          	li	a4,-128
    80000812:	00e781a3          	sb	a4,3(a5)

  // LSB for baud rate of 38.4K.
  WriteReg(0, 0x03);
    80000816:	470d                	li	a4,3
    80000818:	00e78023          	sb	a4,0(a5)

  // MSB for baud rate of 38.4K.
  WriteReg(1, 0x00);
    8000081c:	000780a3          	sb	zero,1(a5)

  // leave set-baud mode,
  // and set word length to 8 bits, no parity.
  WriteReg(LCR, LCR_EIGHT_BITS);
    80000820:	00e781a3          	sb	a4,3(a5)

  // reset and enable FIFOs.
  WriteReg(FCR, FCR_FIFO_ENABLE | FCR_FIFO_CLEAR);
    80000824:	469d                	li	a3,7
    80000826:	00d78123          	sb	a3,2(a5)

  // enable transmit and receive interrupts.
  WriteReg(IER, IER_TX_ENABLE | IER_RX_ENABLE);
    8000082a:	00e780a3          	sb	a4,1(a5)

  initlock(&tx_lock, "uart");
    8000082e:	00007597          	auipc	a1,0x7
    80000832:	82258593          	add	a1,a1,-2014 # 80007050 <digits+0x18>
    80000836:	0000f517          	auipc	a0,0xf
    8000083a:	10a50513          	add	a0,a0,266 # 8000f940 <tx_lock>
    8000083e:	2b6000ef          	jal	80000af4 <initlock>
}
    80000842:	60a2                	ld	ra,8(sp)
    80000844:	6402                	ld	s0,0(sp)
    80000846:	0141                	add	sp,sp,16
    80000848:	8082                	ret

000000008000084a <uartwrite>:
// transmit buf[] to the uart. it blocks if the
// uart is busy, so it cannot be called from
// interrupts, only from write() system calls.
void
uartwrite(char buf[], int n)
{
    8000084a:	715d                	add	sp,sp,-80
    8000084c:	e486                	sd	ra,72(sp)
    8000084e:	e0a2                	sd	s0,64(sp)
    80000850:	fc26                	sd	s1,56(sp)
    80000852:	f84a                	sd	s2,48(sp)
    80000854:	f44e                	sd	s3,40(sp)
    80000856:	f052                	sd	s4,32(sp)
    80000858:	ec56                	sd	s5,24(sp)
    8000085a:	e85a                	sd	s6,16(sp)
    8000085c:	e45e                	sd	s7,8(sp)
    8000085e:	0880                	add	s0,sp,80
    80000860:	8aaa                	mv	s5,a0
    80000862:	84ae                	mv	s1,a1
  acquire(&tx_lock);
    80000864:	0000f517          	auipc	a0,0xf
    80000868:	0dc50513          	add	a0,a0,220 # 8000f940 <tx_lock>
    8000086c:	308000ef          	jal	80000b74 <acquire>

  int i = 0;
  while(i < n){ 
    80000870:	04905663          	blez	s1,800008bc <uartwrite+0x72>
    80000874:	8a56                	mv	s4,s5
    80000876:	9aa6                	add	s5,s5,s1
    while(tx_busy != 0){
    80000878:	00007497          	auipc	s1,0x7
    8000087c:	fe448493          	add	s1,s1,-28 # 8000785c <tx_busy>
      // wait for a UART transmit-complete interrupt
      // to set tx_busy to 0.
      sleep(&tx_chan, &tx_lock);
    80000880:	0000f997          	auipc	s3,0xf
    80000884:	0c098993          	add	s3,s3,192 # 8000f940 <tx_lock>
    80000888:	00007917          	auipc	s2,0x7
    8000088c:	fd090913          	add	s2,s2,-48 # 80007858 <tx_chan>
    }   
      
    WriteReg(THR, buf[i]);
    80000890:	10000bb7          	lui	s7,0x10000
    i += 1;
    tx_busy = 1;
    80000894:	4b05                	li	s6,1
    80000896:	a005                	j	800008b6 <uartwrite+0x6c>
      sleep(&tx_chan, &tx_lock);
    80000898:	85ce                	mv	a1,s3
    8000089a:	854a                	mv	a0,s2
    8000089c:	604010ef          	jal	80001ea0 <sleep>
    while(tx_busy != 0){
    800008a0:	409c                	lw	a5,0(s1)
    800008a2:	fbfd                	bnez	a5,80000898 <uartwrite+0x4e>
    WriteReg(THR, buf[i]);
    800008a4:	000a4783          	lbu	a5,0(s4)
    800008a8:	00fb8023          	sb	a5,0(s7) # 10000000 <_entry-0x70000000>
    tx_busy = 1;
    800008ac:	0164a023          	sw	s6,0(s1)
  while(i < n){ 
    800008b0:	0a05                	add	s4,s4,1
    800008b2:	015a0563          	beq	s4,s5,800008bc <uartwrite+0x72>
    while(tx_busy != 0){
    800008b6:	409c                	lw	a5,0(s1)
    800008b8:	f3e5                	bnez	a5,80000898 <uartwrite+0x4e>
    800008ba:	b7ed                	j	800008a4 <uartwrite+0x5a>
  }

  release(&tx_lock);
    800008bc:	0000f517          	auipc	a0,0xf
    800008c0:	08450513          	add	a0,a0,132 # 8000f940 <tx_lock>
    800008c4:	348000ef          	jal	80000c0c <release>
}
    800008c8:	60a6                	ld	ra,72(sp)
    800008ca:	6406                	ld	s0,64(sp)
    800008cc:	74e2                	ld	s1,56(sp)
    800008ce:	7942                	ld	s2,48(sp)
    800008d0:	79a2                	ld	s3,40(sp)
    800008d2:	7a02                	ld	s4,32(sp)
    800008d4:	6ae2                	ld	s5,24(sp)
    800008d6:	6b42                	ld	s6,16(sp)
    800008d8:	6ba2                	ld	s7,8(sp)
    800008da:	6161                	add	sp,sp,80
    800008dc:	8082                	ret

00000000800008de <uartputc_sync>:
// interrupts, for use by kernel printf() and
// to echo characters. it spins waiting for the uart's
// output register to be empty.
void
uartputc_sync(int c)
{
    800008de:	1101                	add	sp,sp,-32
    800008e0:	ec06                	sd	ra,24(sp)
    800008e2:	e822                	sd	s0,16(sp)
    800008e4:	e426                	sd	s1,8(sp)
    800008e6:	1000                	add	s0,sp,32
    800008e8:	84aa                	mv	s1,a0
  if(panicking == 0)
    800008ea:	00007797          	auipc	a5,0x7
    800008ee:	f6a7a783          	lw	a5,-150(a5) # 80007854 <panicking>
    800008f2:	cb89                	beqz	a5,80000904 <uartputc_sync+0x26>
    push_off();

  if(panicked){
    800008f4:	00007797          	auipc	a5,0x7
    800008f8:	f5c7a783          	lw	a5,-164(a5) # 80007850 <panicked>
    for(;;)
      ;
  }

  // wait for UART to set Transmit Holding Empty in LSR.
  while((ReadReg(LSR) & LSR_TX_IDLE) == 0)
    800008fc:	10000737          	lui	a4,0x10000
  if(panicked){
    80000900:	c789                	beqz	a5,8000090a <uartputc_sync+0x2c>
    for(;;)
    80000902:	a001                	j	80000902 <uartputc_sync+0x24>
    push_off();
    80000904:	230000ef          	jal	80000b34 <push_off>
    80000908:	b7f5                	j	800008f4 <uartputc_sync+0x16>
  while((ReadReg(LSR) & LSR_TX_IDLE) == 0)
    8000090a:	00574783          	lbu	a5,5(a4) # 10000005 <_entry-0x6ffffffb>
    8000090e:	0207f793          	and	a5,a5,32
    80000912:	dfe5                	beqz	a5,8000090a <uartputc_sync+0x2c>
    ;
  WriteReg(THR, c);
    80000914:	0ff4f513          	zext.b	a0,s1
    80000918:	100007b7          	lui	a5,0x10000
    8000091c:	00a78023          	sb	a0,0(a5) # 10000000 <_entry-0x70000000>

  if(panicking == 0)
    80000920:	00007797          	auipc	a5,0x7
    80000924:	f347a783          	lw	a5,-204(a5) # 80007854 <panicking>
    80000928:	c791                	beqz	a5,80000934 <uartputc_sync+0x56>
    pop_off();
}
    8000092a:	60e2                	ld	ra,24(sp)
    8000092c:	6442                	ld	s0,16(sp)
    8000092e:	64a2                	ld	s1,8(sp)
    80000930:	6105                	add	sp,sp,32
    80000932:	8082                	ret
    pop_off();
    80000934:	284000ef          	jal	80000bb8 <pop_off>
}
    80000938:	bfcd                	j	8000092a <uartputc_sync+0x4c>

000000008000093a <uartgetc>:

// try to read one input character from the UART.
// return -1 if none is waiting.
int
uartgetc(void)
{
    8000093a:	1141                	add	sp,sp,-16
    8000093c:	e422                	sd	s0,8(sp)
    8000093e:	0800                	add	s0,sp,16
  if(ReadReg(LSR) & LSR_RX_READY){
    80000940:	100007b7          	lui	a5,0x10000
    80000944:	0057c783          	lbu	a5,5(a5) # 10000005 <_entry-0x6ffffffb>
    80000948:	8b85                	and	a5,a5,1
    8000094a:	cb81                	beqz	a5,8000095a <uartgetc+0x20>
    // input data is ready.
    return ReadReg(RHR);
    8000094c:	100007b7          	lui	a5,0x10000
    80000950:	0007c503          	lbu	a0,0(a5) # 10000000 <_entry-0x70000000>
  } else {
    return -1;
  }
}
    80000954:	6422                	ld	s0,8(sp)
    80000956:	0141                	add	sp,sp,16
    80000958:	8082                	ret
    return -1;
    8000095a:	557d                	li	a0,-1
    8000095c:	bfe5                	j	80000954 <uartgetc+0x1a>

000000008000095e <uartintr>:
// handle a uart interrupt, raised because input has
// arrived, or the uart is ready for more output, or
// both. called from devintr().
void
uartintr(void)
{
    8000095e:	1101                	add	sp,sp,-32
    80000960:	ec06                	sd	ra,24(sp)
    80000962:	e822                	sd	s0,16(sp)
    80000964:	e426                	sd	s1,8(sp)
    80000966:	1000                	add	s0,sp,32
  ReadReg(ISR); // acknowledge the interrupt
    80000968:	100004b7          	lui	s1,0x10000
    8000096c:	0024c783          	lbu	a5,2(s1) # 10000002 <_entry-0x6ffffffe>

  acquire(&tx_lock);
    80000970:	0000f517          	auipc	a0,0xf
    80000974:	fd050513          	add	a0,a0,-48 # 8000f940 <tx_lock>
    80000978:	1fc000ef          	jal	80000b74 <acquire>
  if(ReadReg(LSR) & LSR_TX_IDLE){
    8000097c:	0054c783          	lbu	a5,5(s1)
    80000980:	0207f793          	and	a5,a5,32
    80000984:	eb89                	bnez	a5,80000996 <uartintr+0x38>
    // UART finished transmitting; wake up sending thread.
    tx_busy = 0;
    wakeup(&tx_chan);
  }
  release(&tx_lock);
    80000986:	0000f517          	auipc	a0,0xf
    8000098a:	fba50513          	add	a0,a0,-70 # 8000f940 <tx_lock>
    8000098e:	27e000ef          	jal	80000c0c <release>

  // read and process incoming characters, if any.
  while(1){
    int c = uartgetc();
    if(c == -1)
    80000992:	54fd                	li	s1,-1
    80000994:	a831                	j	800009b0 <uartintr+0x52>
    tx_busy = 0;
    80000996:	00007797          	auipc	a5,0x7
    8000099a:	ec07a323          	sw	zero,-314(a5) # 8000785c <tx_busy>
    wakeup(&tx_chan);
    8000099e:	00007517          	auipc	a0,0x7
    800009a2:	eba50513          	add	a0,a0,-326 # 80007858 <tx_chan>
    800009a6:	546010ef          	jal	80001eec <wakeup>
    800009aa:	bff1                	j	80000986 <uartintr+0x28>
      break;
    consoleintr(c);
    800009ac:	8d9ff0ef          	jal	80000284 <consoleintr>
    int c = uartgetc();
    800009b0:	f8bff0ef          	jal	8000093a <uartgetc>
    if(c == -1)
    800009b4:	fe951ce3          	bne	a0,s1,800009ac <uartintr+0x4e>
  }
}
    800009b8:	60e2                	ld	ra,24(sp)
    800009ba:	6442                	ld	s0,16(sp)
    800009bc:	64a2                	ld	s1,8(sp)
    800009be:	6105                	add	sp,sp,32
    800009c0:	8082                	ret

00000000800009c2 <kfree>:
// which normally should have been returned by a
// call to kalloc().  (The exception is when
// initializing the allocator; see kinit above.)
void
kfree(void *pa)
{
    800009c2:	1101                	add	sp,sp,-32
    800009c4:	ec06                	sd	ra,24(sp)
    800009c6:	e822                	sd	s0,16(sp)
    800009c8:	e426                	sd	s1,8(sp)
    800009ca:	e04a                	sd	s2,0(sp)
    800009cc:	1000                	add	s0,sp,32
  struct run *r;

  if(((uint64)pa % PGSIZE) != 0 || (char*)pa < end || (uint64)pa >= PHYSTOP)
    800009ce:	03451793          	sll	a5,a0,0x34
    800009d2:	e7a9                	bnez	a5,80000a1c <kfree+0x5a>
    800009d4:	84aa                	mv	s1,a0
    800009d6:	00020797          	auipc	a5,0x20
    800009da:	41a78793          	add	a5,a5,1050 # 80020df0 <end>
    800009de:	02f56f63          	bltu	a0,a5,80000a1c <kfree+0x5a>
    800009e2:	47c5                	li	a5,17
    800009e4:	07ee                	sll	a5,a5,0x1b
    800009e6:	02f57b63          	bgeu	a0,a5,80000a1c <kfree+0x5a>
    panic("kfree");

  // Fill with junk to catch dangling refs.
  memset(pa, 1, PGSIZE);
    800009ea:	6605                	lui	a2,0x1
    800009ec:	4585                	li	a1,1
    800009ee:	25a000ef          	jal	80000c48 <memset>

  r = (struct run*)pa;

  acquire(&kmem.lock);
    800009f2:	0000f917          	auipc	s2,0xf
    800009f6:	f6690913          	add	s2,s2,-154 # 8000f958 <kmem>
    800009fa:	854a                	mv	a0,s2
    800009fc:	178000ef          	jal	80000b74 <acquire>
  r->next = kmem.freelist;
    80000a00:	01893783          	ld	a5,24(s2)
    80000a04:	e09c                	sd	a5,0(s1)
  kmem.freelist = r;
    80000a06:	00993c23          	sd	s1,24(s2)
  release(&kmem.lock);
    80000a0a:	854a                	mv	a0,s2
    80000a0c:	200000ef          	jal	80000c0c <release>
}
    80000a10:	60e2                	ld	ra,24(sp)
    80000a12:	6442                	ld	s0,16(sp)
    80000a14:	64a2                	ld	s1,8(sp)
    80000a16:	6902                	ld	s2,0(sp)
    80000a18:	6105                	add	sp,sp,32
    80000a1a:	8082                	ret
    panic("kfree");
    80000a1c:	00006517          	auipc	a0,0x6
    80000a20:	63c50513          	add	a0,a0,1596 # 80007058 <digits+0x20>
    80000a24:	d7bff0ef          	jal	8000079e <panic>

0000000080000a28 <freerange>:
{
    80000a28:	7179                	add	sp,sp,-48
    80000a2a:	f406                	sd	ra,40(sp)
    80000a2c:	f022                	sd	s0,32(sp)
    80000a2e:	ec26                	sd	s1,24(sp)
    80000a30:	e84a                	sd	s2,16(sp)
    80000a32:	e44e                	sd	s3,8(sp)
    80000a34:	e052                	sd	s4,0(sp)
    80000a36:	1800                	add	s0,sp,48
  p = (char*)PGROUNDUP((uint64)pa_start);
    80000a38:	6785                	lui	a5,0x1
    80000a3a:	fff78713          	add	a4,a5,-1 # fff <_entry-0x7ffff001>
    80000a3e:	00e504b3          	add	s1,a0,a4
    80000a42:	777d                	lui	a4,0xfffff
    80000a44:	8cf9                	and	s1,s1,a4
  for(; p + PGSIZE <= (char*)pa_end; p += PGSIZE)
    80000a46:	94be                	add	s1,s1,a5
    80000a48:	0095ec63          	bltu	a1,s1,80000a60 <freerange+0x38>
    80000a4c:	892e                	mv	s2,a1
    kfree(p);
    80000a4e:	7a7d                	lui	s4,0xfffff
  for(; p + PGSIZE <= (char*)pa_end; p += PGSIZE)
    80000a50:	6985                	lui	s3,0x1
    kfree(p);
    80000a52:	01448533          	add	a0,s1,s4
    80000a56:	f6dff0ef          	jal	800009c2 <kfree>
  for(; p + PGSIZE <= (char*)pa_end; p += PGSIZE)
    80000a5a:	94ce                	add	s1,s1,s3
    80000a5c:	fe997be3          	bgeu	s2,s1,80000a52 <freerange+0x2a>
}
    80000a60:	70a2                	ld	ra,40(sp)
    80000a62:	7402                	ld	s0,32(sp)
    80000a64:	64e2                	ld	s1,24(sp)
    80000a66:	6942                	ld	s2,16(sp)
    80000a68:	69a2                	ld	s3,8(sp)
    80000a6a:	6a02                	ld	s4,0(sp)
    80000a6c:	6145                	add	sp,sp,48
    80000a6e:	8082                	ret

0000000080000a70 <kinit>:
{
    80000a70:	1141                	add	sp,sp,-16
    80000a72:	e406                	sd	ra,8(sp)
    80000a74:	e022                	sd	s0,0(sp)
    80000a76:	0800                	add	s0,sp,16
  initlock(&kmem.lock, "kmem");
    80000a78:	00006597          	auipc	a1,0x6
    80000a7c:	5e858593          	add	a1,a1,1512 # 80007060 <digits+0x28>
    80000a80:	0000f517          	auipc	a0,0xf
    80000a84:	ed850513          	add	a0,a0,-296 # 8000f958 <kmem>
    80000a88:	06c000ef          	jal	80000af4 <initlock>
  freerange(end, (void*)PHYSTOP);
    80000a8c:	45c5                	li	a1,17
    80000a8e:	05ee                	sll	a1,a1,0x1b
    80000a90:	00020517          	auipc	a0,0x20
    80000a94:	36050513          	add	a0,a0,864 # 80020df0 <end>
    80000a98:	f91ff0ef          	jal	80000a28 <freerange>
}
    80000a9c:	60a2                	ld	ra,8(sp)
    80000a9e:	6402                	ld	s0,0(sp)
    80000aa0:	0141                	add	sp,sp,16
    80000aa2:	8082                	ret

0000000080000aa4 <kalloc>:
// Allocate one 4096-byte page of physical memory.
// Returns a pointer that the kernel can use.
// Returns 0 if the memory cannot be allocated.
void *
kalloc(void)
{
    80000aa4:	1101                	add	sp,sp,-32
    80000aa6:	ec06                	sd	ra,24(sp)
    80000aa8:	e822                	sd	s0,16(sp)
    80000aaa:	e426                	sd	s1,8(sp)
    80000aac:	1000                	add	s0,sp,32
  struct run *r;

  acquire(&kmem.lock);
    80000aae:	0000f497          	auipc	s1,0xf
    80000ab2:	eaa48493          	add	s1,s1,-342 # 8000f958 <kmem>
    80000ab6:	8526                	mv	a0,s1
    80000ab8:	0bc000ef          	jal	80000b74 <acquire>
  r = kmem.freelist;
    80000abc:	6c84                	ld	s1,24(s1)
  if(r)
    80000abe:	c485                	beqz	s1,80000ae6 <kalloc+0x42>
    kmem.freelist = r->next;
    80000ac0:	609c                	ld	a5,0(s1)
    80000ac2:	0000f517          	auipc	a0,0xf
    80000ac6:	e9650513          	add	a0,a0,-362 # 8000f958 <kmem>
    80000aca:	ed1c                	sd	a5,24(a0)
  release(&kmem.lock);
    80000acc:	140000ef          	jal	80000c0c <release>

  if(r)
    memset((char*)r, 5, PGSIZE); // fill with junk
    80000ad0:	6605                	lui	a2,0x1
    80000ad2:	4595                	li	a1,5
    80000ad4:	8526                	mv	a0,s1
    80000ad6:	172000ef          	jal	80000c48 <memset>
  return (void*)r;
}
    80000ada:	8526                	mv	a0,s1
    80000adc:	60e2                	ld	ra,24(sp)
    80000ade:	6442                	ld	s0,16(sp)
    80000ae0:	64a2                	ld	s1,8(sp)
    80000ae2:	6105                	add	sp,sp,32
    80000ae4:	8082                	ret
  release(&kmem.lock);
    80000ae6:	0000f517          	auipc	a0,0xf
    80000aea:	e7250513          	add	a0,a0,-398 # 8000f958 <kmem>
    80000aee:	11e000ef          	jal	80000c0c <release>
  if(r)
    80000af2:	b7e5                	j	80000ada <kalloc+0x36>

0000000080000af4 <initlock>:
#include "proc.h"
#include "defs.h"

void
initlock(struct spinlock *lk, char *name)
{
    80000af4:	1141                	add	sp,sp,-16
    80000af6:	e422                	sd	s0,8(sp)
    80000af8:	0800                	add	s0,sp,16
  lk->name = name;
    80000afa:	e50c                	sd	a1,8(a0)
  lk->locked = 0;
    80000afc:	00052023          	sw	zero,0(a0)
  lk->cpu = 0;
    80000b00:	00053823          	sd	zero,16(a0)
}
    80000b04:	6422                	ld	s0,8(sp)
    80000b06:	0141                	add	sp,sp,16
    80000b08:	8082                	ret

0000000080000b0a <holding>:
// Interrupts must be off.
int
holding(struct spinlock *lk)
{
  int r;
  r = (lk->locked && lk->cpu == mycpu());
    80000b0a:	411c                	lw	a5,0(a0)
    80000b0c:	e399                	bnez	a5,80000b12 <holding+0x8>
    80000b0e:	4501                	li	a0,0
  return r;
}
    80000b10:	8082                	ret
{
    80000b12:	1101                	add	sp,sp,-32
    80000b14:	ec06                	sd	ra,24(sp)
    80000b16:	e822                	sd	s0,16(sp)
    80000b18:	e426                	sd	s1,8(sp)
    80000b1a:	1000                	add	s0,sp,32
  r = (lk->locked && lk->cpu == mycpu());
    80000b1c:	6904                	ld	s1,16(a0)
    80000b1e:	4d1000ef          	jal	800017ee <mycpu>
    80000b22:	40a48533          	sub	a0,s1,a0
    80000b26:	00153513          	seqz	a0,a0
}
    80000b2a:	60e2                	ld	ra,24(sp)
    80000b2c:	6442                	ld	s0,16(sp)
    80000b2e:	64a2                	ld	s1,8(sp)
    80000b30:	6105                	add	sp,sp,32
    80000b32:	8082                	ret

0000000080000b34 <push_off>:
// it takes two pop_off()s to undo two push_off()s.  Also, if interrupts
// are initially off, then push_off, pop_off leaves them off.

void
push_off(void)
{
    80000b34:	1101                	add	sp,sp,-32
    80000b36:	ec06                	sd	ra,24(sp)
    80000b38:	e822                	sd	s0,16(sp)
    80000b3a:	e426                	sd	s1,8(sp)
    80000b3c:	1000                	add	s0,sp,32
  asm volatile("csrr %0, sstatus" : "=r" (x) );
    80000b3e:	100024f3          	csrr	s1,sstatus
    80000b42:	100027f3          	csrr	a5,sstatus
  w_sstatus(r_sstatus() & ~SSTATUS_SIE);
    80000b46:	9bf5                	and	a5,a5,-3
  asm volatile("csrw sstatus, %0" : : "r" (x));
    80000b48:	10079073          	csrw	sstatus,a5

  // disable interrupts to prevent an involuntary context
  // switch while using mycpu().
  intr_off();

  if(mycpu()->noff == 0)
    80000b4c:	4a3000ef          	jal	800017ee <mycpu>
    80000b50:	5d3c                	lw	a5,120(a0)
    80000b52:	cb99                	beqz	a5,80000b68 <push_off+0x34>
    mycpu()->intena = old;
  mycpu()->noff += 1;
    80000b54:	49b000ef          	jal	800017ee <mycpu>
    80000b58:	5d3c                	lw	a5,120(a0)
    80000b5a:	2785                	addw	a5,a5,1
    80000b5c:	dd3c                	sw	a5,120(a0)
}
    80000b5e:	60e2                	ld	ra,24(sp)
    80000b60:	6442                	ld	s0,16(sp)
    80000b62:	64a2                	ld	s1,8(sp)
    80000b64:	6105                	add	sp,sp,32
    80000b66:	8082                	ret
    mycpu()->intena = old;
    80000b68:	487000ef          	jal	800017ee <mycpu>
  return (x & SSTATUS_SIE) != 0;
    80000b6c:	8085                	srl	s1,s1,0x1
    80000b6e:	8885                	and	s1,s1,1
    80000b70:	dd64                	sw	s1,124(a0)
    80000b72:	b7cd                	j	80000b54 <push_off+0x20>

0000000080000b74 <acquire>:
{
    80000b74:	1101                	add	sp,sp,-32
    80000b76:	ec06                	sd	ra,24(sp)
    80000b78:	e822                	sd	s0,16(sp)
    80000b7a:	e426                	sd	s1,8(sp)
    80000b7c:	1000                	add	s0,sp,32
    80000b7e:	84aa                	mv	s1,a0
  push_off(); // disable interrupts to avoid deadlock.
    80000b80:	fb5ff0ef          	jal	80000b34 <push_off>
  if(holding(lk))
    80000b84:	8526                	mv	a0,s1
    80000b86:	f85ff0ef          	jal	80000b0a <holding>
  while(__sync_lock_test_and_set(&lk->locked, 1) != 0)
    80000b8a:	4705                	li	a4,1
  if(holding(lk))
    80000b8c:	e105                	bnez	a0,80000bac <acquire+0x38>
  while(__sync_lock_test_and_set(&lk->locked, 1) != 0)
    80000b8e:	87ba                	mv	a5,a4
    80000b90:	0cf4a7af          	amoswap.w.aq	a5,a5,(s1)
    80000b94:	2781                	sext.w	a5,a5
    80000b96:	ffe5                	bnez	a5,80000b8e <acquire+0x1a>
  __sync_synchronize();
    80000b98:	0ff0000f          	fence
  lk->cpu = mycpu();
    80000b9c:	453000ef          	jal	800017ee <mycpu>
    80000ba0:	e888                	sd	a0,16(s1)
}
    80000ba2:	60e2                	ld	ra,24(sp)
    80000ba4:	6442                	ld	s0,16(sp)
    80000ba6:	64a2                	ld	s1,8(sp)
    80000ba8:	6105                	add	sp,sp,32
    80000baa:	8082                	ret
    panic("acquire");
    80000bac:	00006517          	auipc	a0,0x6
    80000bb0:	4bc50513          	add	a0,a0,1212 # 80007068 <digits+0x30>
    80000bb4:	bebff0ef          	jal	8000079e <panic>

0000000080000bb8 <pop_off>:

void
pop_off(void)
{
    80000bb8:	1141                	add	sp,sp,-16
    80000bba:	e406                	sd	ra,8(sp)
    80000bbc:	e022                	sd	s0,0(sp)
    80000bbe:	0800                	add	s0,sp,16
  struct cpu *c = mycpu();
    80000bc0:	42f000ef          	jal	800017ee <mycpu>
  asm volatile("csrr %0, sstatus" : "=r" (x) );
    80000bc4:	100027f3          	csrr	a5,sstatus
  return (x & SSTATUS_SIE) != 0;
    80000bc8:	8b89                	and	a5,a5,2
  if(intr_get())
    80000bca:	e78d                	bnez	a5,80000bf4 <pop_off+0x3c>
    panic("pop_off - interruptible");
  if(c->noff < 1)
    80000bcc:	5d3c                	lw	a5,120(a0)
    80000bce:	02f05963          	blez	a5,80000c00 <pop_off+0x48>
    panic("pop_off");
  c->noff -= 1;
    80000bd2:	37fd                	addw	a5,a5,-1
    80000bd4:	0007871b          	sext.w	a4,a5
    80000bd8:	dd3c                	sw	a5,120(a0)
  if(c->noff == 0 && c->intena)
    80000bda:	eb09                	bnez	a4,80000bec <pop_off+0x34>
    80000bdc:	5d7c                	lw	a5,124(a0)
    80000bde:	c799                	beqz	a5,80000bec <pop_off+0x34>
  asm volatile("csrr %0, sstatus" : "=r" (x) );
    80000be0:	100027f3          	csrr	a5,sstatus
  w_sstatus(r_sstatus() | SSTATUS_SIE);
    80000be4:	0027e793          	or	a5,a5,2
  asm volatile("csrw sstatus, %0" : : "r" (x));
    80000be8:	10079073          	csrw	sstatus,a5
    intr_on();
}
    80000bec:	60a2                	ld	ra,8(sp)
    80000bee:	6402                	ld	s0,0(sp)
    80000bf0:	0141                	add	sp,sp,16
    80000bf2:	8082                	ret
    panic("pop_off - interruptible");
    80000bf4:	00006517          	auipc	a0,0x6
    80000bf8:	47c50513          	add	a0,a0,1148 # 80007070 <digits+0x38>
    80000bfc:	ba3ff0ef          	jal	8000079e <panic>
    panic("pop_off");
    80000c00:	00006517          	auipc	a0,0x6
    80000c04:	48850513          	add	a0,a0,1160 # 80007088 <digits+0x50>
    80000c08:	b97ff0ef          	jal	8000079e <panic>

0000000080000c0c <release>:
{
    80000c0c:	1101                	add	sp,sp,-32
    80000c0e:	ec06                	sd	ra,24(sp)
    80000c10:	e822                	sd	s0,16(sp)
    80000c12:	e426                	sd	s1,8(sp)
    80000c14:	1000                	add	s0,sp,32
    80000c16:	84aa                	mv	s1,a0
  if(!holding(lk))
    80000c18:	ef3ff0ef          	jal	80000b0a <holding>
    80000c1c:	c105                	beqz	a0,80000c3c <release+0x30>
  lk->cpu = 0;
    80000c1e:	0004b823          	sd	zero,16(s1)
  __sync_synchronize();
    80000c22:	0ff0000f          	fence
  __sync_lock_release(&lk->locked);
    80000c26:	0f50000f          	fence	iorw,ow
    80000c2a:	0804a02f          	amoswap.w	zero,zero,(s1)
  pop_off();
    80000c2e:	f8bff0ef          	jal	80000bb8 <pop_off>
}
    80000c32:	60e2                	ld	ra,24(sp)
    80000c34:	6442                	ld	s0,16(sp)
    80000c36:	64a2                	ld	s1,8(sp)
    80000c38:	6105                	add	sp,sp,32
    80000c3a:	8082                	ret
    panic("release");
    80000c3c:	00006517          	auipc	a0,0x6
    80000c40:	45450513          	add	a0,a0,1108 # 80007090 <digits+0x58>
    80000c44:	b5bff0ef          	jal	8000079e <panic>

0000000080000c48 <memset>:
#include "types.h"

void*
memset(void *dst, int c, uint n)
{
    80000c48:	1141                	add	sp,sp,-16
    80000c4a:	e422                	sd	s0,8(sp)
    80000c4c:	0800                	add	s0,sp,16
  char *cdst = (char *) dst;
  int i;
  for(i = 0; i < n; i++){
    80000c4e:	ca19                	beqz	a2,80000c64 <memset+0x1c>
    80000c50:	87aa                	mv	a5,a0
    80000c52:	1602                	sll	a2,a2,0x20
    80000c54:	9201                	srl	a2,a2,0x20
    80000c56:	00a60733          	add	a4,a2,a0
    cdst[i] = c;
    80000c5a:	00b78023          	sb	a1,0(a5)
  for(i = 0; i < n; i++){
    80000c5e:	0785                	add	a5,a5,1
    80000c60:	fee79de3          	bne	a5,a4,80000c5a <memset+0x12>
  }
  return dst;
}
    80000c64:	6422                	ld	s0,8(sp)
    80000c66:	0141                	add	sp,sp,16
    80000c68:	8082                	ret

0000000080000c6a <memcmp>:

int
memcmp(const void *v1, const void *v2, uint n)
{
    80000c6a:	1141                	add	sp,sp,-16
    80000c6c:	e422                	sd	s0,8(sp)
    80000c6e:	0800                	add	s0,sp,16
  const uchar *s1, *s2;

  s1 = v1;
  s2 = v2;
  while(n-- > 0){
    80000c70:	ca05                	beqz	a2,80000ca0 <memcmp+0x36>
    80000c72:	fff6069b          	addw	a3,a2,-1 # fff <_entry-0x7ffff001>
    80000c76:	1682                	sll	a3,a3,0x20
    80000c78:	9281                	srl	a3,a3,0x20
    80000c7a:	0685                	add	a3,a3,1
    80000c7c:	96aa                	add	a3,a3,a0
    if(*s1 != *s2)
    80000c7e:	00054783          	lbu	a5,0(a0)
    80000c82:	0005c703          	lbu	a4,0(a1)
    80000c86:	00e79863          	bne	a5,a4,80000c96 <memcmp+0x2c>
      return *s1 - *s2;
    s1++, s2++;
    80000c8a:	0505                	add	a0,a0,1
    80000c8c:	0585                	add	a1,a1,1
  while(n-- > 0){
    80000c8e:	fed518e3          	bne	a0,a3,80000c7e <memcmp+0x14>
  }

  return 0;
    80000c92:	4501                	li	a0,0
    80000c94:	a019                	j	80000c9a <memcmp+0x30>
      return *s1 - *s2;
    80000c96:	40e7853b          	subw	a0,a5,a4
}
    80000c9a:	6422                	ld	s0,8(sp)
    80000c9c:	0141                	add	sp,sp,16
    80000c9e:	8082                	ret
  return 0;
    80000ca0:	4501                	li	a0,0
    80000ca2:	bfe5                	j	80000c9a <memcmp+0x30>

0000000080000ca4 <memmove>:

void*
memmove(void *dst, const void *src, uint n)
{
    80000ca4:	1141                	add	sp,sp,-16
    80000ca6:	e422                	sd	s0,8(sp)
    80000ca8:	0800                	add	s0,sp,16
  const char *s;
  char *d;

  if(n == 0)
    80000caa:	c205                	beqz	a2,80000cca <memmove+0x26>
    return dst;
  
  s = src;
  d = dst;
  if(s < d && s + n > d){
    80000cac:	02a5e263          	bltu	a1,a0,80000cd0 <memmove+0x2c>
    s += n;
    d += n;
    while(n-- > 0)
      *--d = *--s;
  } else
    while(n-- > 0)
    80000cb0:	1602                	sll	a2,a2,0x20
    80000cb2:	9201                	srl	a2,a2,0x20
    80000cb4:	00c587b3          	add	a5,a1,a2
{
    80000cb8:	872a                	mv	a4,a0
      *d++ = *s++;
    80000cba:	0585                	add	a1,a1,1
    80000cbc:	0705                	add	a4,a4,1 # fffffffffffff001 <end+0xffffffff7ffde211>
    80000cbe:	fff5c683          	lbu	a3,-1(a1)
    80000cc2:	fed70fa3          	sb	a3,-1(a4)
    while(n-- > 0)
    80000cc6:	fef59ae3          	bne	a1,a5,80000cba <memmove+0x16>

  return dst;
}
    80000cca:	6422                	ld	s0,8(sp)
    80000ccc:	0141                	add	sp,sp,16
    80000cce:	8082                	ret
  if(s < d && s + n > d){
    80000cd0:	02061693          	sll	a3,a2,0x20
    80000cd4:	9281                	srl	a3,a3,0x20
    80000cd6:	00d58733          	add	a4,a1,a3
    80000cda:	fce57be3          	bgeu	a0,a4,80000cb0 <memmove+0xc>
    d += n;
    80000cde:	96aa                	add	a3,a3,a0
    while(n-- > 0)
    80000ce0:	fff6079b          	addw	a5,a2,-1
    80000ce4:	1782                	sll	a5,a5,0x20
    80000ce6:	9381                	srl	a5,a5,0x20
    80000ce8:	fff7c793          	not	a5,a5
    80000cec:	97ba                	add	a5,a5,a4
      *--d = *--s;
    80000cee:	177d                	add	a4,a4,-1
    80000cf0:	16fd                	add	a3,a3,-1
    80000cf2:	00074603          	lbu	a2,0(a4)
    80000cf6:	00c68023          	sb	a2,0(a3)
    while(n-- > 0)
    80000cfa:	fee79ae3          	bne	a5,a4,80000cee <memmove+0x4a>
    80000cfe:	b7f1                	j	80000cca <memmove+0x26>

0000000080000d00 <memcpy>:

// memcpy exists to placate GCC.  Use memmove.
void*
memcpy(void *dst, const void *src, uint n)
{
    80000d00:	1141                	add	sp,sp,-16
    80000d02:	e406                	sd	ra,8(sp)
    80000d04:	e022                	sd	s0,0(sp)
    80000d06:	0800                	add	s0,sp,16
  return memmove(dst, src, n);
    80000d08:	f9dff0ef          	jal	80000ca4 <memmove>
}
    80000d0c:	60a2                	ld	ra,8(sp)
    80000d0e:	6402                	ld	s0,0(sp)
    80000d10:	0141                	add	sp,sp,16
    80000d12:	8082                	ret

0000000080000d14 <strncmp>:

int
strncmp(const char *p, const char *q, uint n)
{
    80000d14:	1141                	add	sp,sp,-16
    80000d16:	e422                	sd	s0,8(sp)
    80000d18:	0800                	add	s0,sp,16
  while(n > 0 && *p && *p == *q)
    80000d1a:	ce11                	beqz	a2,80000d36 <strncmp+0x22>
    80000d1c:	00054783          	lbu	a5,0(a0)
    80000d20:	cf89                	beqz	a5,80000d3a <strncmp+0x26>
    80000d22:	0005c703          	lbu	a4,0(a1)
    80000d26:	00f71a63          	bne	a4,a5,80000d3a <strncmp+0x26>
    n--, p++, q++;
    80000d2a:	367d                	addw	a2,a2,-1
    80000d2c:	0505                	add	a0,a0,1
    80000d2e:	0585                	add	a1,a1,1
  while(n > 0 && *p && *p == *q)
    80000d30:	f675                	bnez	a2,80000d1c <strncmp+0x8>
  if(n == 0)
    return 0;
    80000d32:	4501                	li	a0,0
    80000d34:	a809                	j	80000d46 <strncmp+0x32>
    80000d36:	4501                	li	a0,0
    80000d38:	a039                	j	80000d46 <strncmp+0x32>
  if(n == 0)
    80000d3a:	ca09                	beqz	a2,80000d4c <strncmp+0x38>
  return (uchar)*p - (uchar)*q;
    80000d3c:	00054503          	lbu	a0,0(a0)
    80000d40:	0005c783          	lbu	a5,0(a1)
    80000d44:	9d1d                	subw	a0,a0,a5
}
    80000d46:	6422                	ld	s0,8(sp)
    80000d48:	0141                	add	sp,sp,16
    80000d4a:	8082                	ret
    return 0;
    80000d4c:	4501                	li	a0,0
    80000d4e:	bfe5                	j	80000d46 <strncmp+0x32>

0000000080000d50 <strncpy>:

char*
strncpy(char *s, const char *t, int n)
{
    80000d50:	1141                	add	sp,sp,-16
    80000d52:	e422                	sd	s0,8(sp)
    80000d54:	0800                	add	s0,sp,16
  char *os;

  os = s;
  while(n-- > 0 && (*s++ = *t++) != 0)
    80000d56:	87aa                	mv	a5,a0
    80000d58:	86b2                	mv	a3,a2
    80000d5a:	367d                	addw	a2,a2,-1
    80000d5c:	00d05963          	blez	a3,80000d6e <strncpy+0x1e>
    80000d60:	0785                	add	a5,a5,1
    80000d62:	0005c703          	lbu	a4,0(a1)
    80000d66:	fee78fa3          	sb	a4,-1(a5)
    80000d6a:	0585                	add	a1,a1,1
    80000d6c:	f775                	bnez	a4,80000d58 <strncpy+0x8>
    ;
  while(n-- > 0)
    80000d6e:	873e                	mv	a4,a5
    80000d70:	9fb5                	addw	a5,a5,a3
    80000d72:	37fd                	addw	a5,a5,-1
    80000d74:	00c05963          	blez	a2,80000d86 <strncpy+0x36>
    *s++ = 0;
    80000d78:	0705                	add	a4,a4,1
    80000d7a:	fe070fa3          	sb	zero,-1(a4)
  while(n-- > 0)
    80000d7e:	40e786bb          	subw	a3,a5,a4
    80000d82:	fed04be3          	bgtz	a3,80000d78 <strncpy+0x28>
  return os;
}
    80000d86:	6422                	ld	s0,8(sp)
    80000d88:	0141                	add	sp,sp,16
    80000d8a:	8082                	ret

0000000080000d8c <safestrcpy>:

// Like strncpy but guaranteed to NUL-terminate.
char*
safestrcpy(char *s, const char *t, int n)
{
    80000d8c:	1141                	add	sp,sp,-16
    80000d8e:	e422                	sd	s0,8(sp)
    80000d90:	0800                	add	s0,sp,16
  char *os;

  os = s;
  if(n <= 0)
    80000d92:	02c05363          	blez	a2,80000db8 <safestrcpy+0x2c>
    80000d96:	fff6069b          	addw	a3,a2,-1
    80000d9a:	1682                	sll	a3,a3,0x20
    80000d9c:	9281                	srl	a3,a3,0x20
    80000d9e:	96ae                	add	a3,a3,a1
    80000da0:	87aa                	mv	a5,a0
    return os;
  while(--n > 0 && (*s++ = *t++) != 0)
    80000da2:	00d58963          	beq	a1,a3,80000db4 <safestrcpy+0x28>
    80000da6:	0585                	add	a1,a1,1
    80000da8:	0785                	add	a5,a5,1
    80000daa:	fff5c703          	lbu	a4,-1(a1)
    80000dae:	fee78fa3          	sb	a4,-1(a5)
    80000db2:	fb65                	bnez	a4,80000da2 <safestrcpy+0x16>
    ;
  *s = 0;
    80000db4:	00078023          	sb	zero,0(a5)
  return os;
}
    80000db8:	6422                	ld	s0,8(sp)
    80000dba:	0141                	add	sp,sp,16
    80000dbc:	8082                	ret

0000000080000dbe <strlen>:

int
strlen(const char *s)
{
    80000dbe:	1141                	add	sp,sp,-16
    80000dc0:	e422                	sd	s0,8(sp)
    80000dc2:	0800                	add	s0,sp,16
  int n;

  for(n = 0; s[n]; n++)
    80000dc4:	00054783          	lbu	a5,0(a0)
    80000dc8:	cf91                	beqz	a5,80000de4 <strlen+0x26>
    80000dca:	0505                	add	a0,a0,1
    80000dcc:	87aa                	mv	a5,a0
    80000dce:	86be                	mv	a3,a5
    80000dd0:	0785                	add	a5,a5,1
    80000dd2:	fff7c703          	lbu	a4,-1(a5)
    80000dd6:	ff65                	bnez	a4,80000dce <strlen+0x10>
    80000dd8:	40a6853b          	subw	a0,a3,a0
    80000ddc:	2505                	addw	a0,a0,1
    ;
  return n;
}
    80000dde:	6422                	ld	s0,8(sp)
    80000de0:	0141                	add	sp,sp,16
    80000de2:	8082                	ret
  for(n = 0; s[n]; n++)
    80000de4:	4501                	li	a0,0
    80000de6:	bfe5                	j	80000dde <strlen+0x20>

0000000080000de8 <main>:
volatile static int started = 0;

// start() jumps here in supervisor mode on all CPUs.
void
main()
{
    80000de8:	1141                	add	sp,sp,-16
    80000dea:	e406                	sd	ra,8(sp)
    80000dec:	e022                	sd	s0,0(sp)
    80000dee:	0800                	add	s0,sp,16
  if(cpuid() == 0){
    80000df0:	1ef000ef          	jal	800017de <cpuid>
    virtio_disk_init(); // emulated hard disk
    userinit();      // first user process
    __sync_synchronize();
    started = 1;
  } else {
    while(started == 0)
    80000df4:	00007717          	auipc	a4,0x7
    80000df8:	a6c70713          	add	a4,a4,-1428 # 80007860 <started>
  if(cpuid() == 0){
    80000dfc:	c51d                	beqz	a0,80000e2a <main+0x42>
    while(started == 0)
    80000dfe:	431c                	lw	a5,0(a4)
    80000e00:	2781                	sext.w	a5,a5
    80000e02:	dff5                	beqz	a5,80000dfe <main+0x16>
      ;
    __sync_synchronize();
    80000e04:	0ff0000f          	fence
    printf("hart %d starting\n", cpuid());
    80000e08:	1d7000ef          	jal	800017de <cpuid>
    80000e0c:	85aa                	mv	a1,a0
    80000e0e:	00006517          	auipc	a0,0x6
    80000e12:	2a250513          	add	a0,a0,674 # 800070b0 <digits+0x78>
    80000e16:	eb6ff0ef          	jal	800004cc <printf>
    kvminithart();    // turn on paging
    80000e1a:	080000ef          	jal	80000e9a <kvminithart>
    trapinithart();   // install kernel trap vector
    80000e1e:	648010ef          	jal	80002466 <trapinithart>
    plicinithart();   // ask PLIC for device interrupts
    80000e22:	592040ef          	jal	800053b4 <plicinithart>
  }

  scheduler();        
    80000e26:	667000ef          	jal	80001c8c <scheduler>
    consoleinit();
    80000e2a:	dccff0ef          	jal	800003f6 <consoleinit>
    printfinit();
    80000e2e:	9adff0ef          	jal	800007da <printfinit>
    printf("\n");
    80000e32:	00006517          	auipc	a0,0x6
    80000e36:	28e50513          	add	a0,a0,654 # 800070c0 <digits+0x88>
    80000e3a:	e92ff0ef          	jal	800004cc <printf>
    printf("xv6 kernel is booting\n");
    80000e3e:	00006517          	auipc	a0,0x6
    80000e42:	25a50513          	add	a0,a0,602 # 80007098 <digits+0x60>
    80000e46:	e86ff0ef          	jal	800004cc <printf>
    printf("\n");
    80000e4a:	00006517          	auipc	a0,0x6
    80000e4e:	27650513          	add	a0,a0,630 # 800070c0 <digits+0x88>
    80000e52:	e7aff0ef          	jal	800004cc <printf>
    kinit();         // physical page allocator
    80000e56:	c1bff0ef          	jal	80000a70 <kinit>
    kvminit();       // create kernel page table
    80000e5a:	2ca000ef          	jal	80001124 <kvminit>
    kvminithart();   // turn on paging
    80000e5e:	03c000ef          	jal	80000e9a <kvminithart>
    procinit();      // process table
    80000e62:	0d5000ef          	jal	80001736 <procinit>
    trapinit();      // trap vectors
    80000e66:	5dc010ef          	jal	80002442 <trapinit>
    trapinithart();  // install kernel trap vector
    80000e6a:	5fc010ef          	jal	80002466 <trapinithart>
    plicinit();      // set up interrupt controller
    80000e6e:	530040ef          	jal	8000539e <plicinit>
    plicinithart();  // ask PLIC for device interrupts
    80000e72:	542040ef          	jal	800053b4 <plicinithart>
    binit();         // buffer cache
    80000e76:	53b010ef          	jal	80002bb0 <binit>
    iinit();         // inode table
    80000e7a:	2a8020ef          	jal	80003122 <iinit>
    fileinit();      // file table
    80000e7e:	160030ef          	jal	80003fde <fileinit>
    virtio_disk_init(); // emulated hard disk
    80000e82:	622040ef          	jal	800054a4 <virtio_disk_init>
    userinit();      // first user process
    80000e86:	455000ef          	jal	80001ada <userinit>
    __sync_synchronize();
    80000e8a:	0ff0000f          	fence
    started = 1;
    80000e8e:	4785                	li	a5,1
    80000e90:	00007717          	auipc	a4,0x7
    80000e94:	9cf72823          	sw	a5,-1584(a4) # 80007860 <started>
    80000e98:	b779                	j	80000e26 <main+0x3e>

0000000080000e9a <kvminithart>:

// Switch the current CPU's h/w page table register to
// the kernel's page table, and enable paging.
void
kvminithart()
{
    80000e9a:	1141                	add	sp,sp,-16
    80000e9c:	e422                	sd	s0,8(sp)
    80000e9e:	0800                	add	s0,sp,16
// flush the TLB.
static inline void
sfence_vma()
{
  // the zero, zero means flush all TLB entries.
  asm volatile("sfence.vma zero, zero");
    80000ea0:	12000073          	sfence.vma
  // wait for any previous writes to the page table memory to finish.
  sfence_vma();

  w_satp(MAKE_SATP(kernel_pagetable));
    80000ea4:	00007797          	auipc	a5,0x7
    80000ea8:	9c47b783          	ld	a5,-1596(a5) # 80007868 <kernel_pagetable>
    80000eac:	83b1                	srl	a5,a5,0xc
    80000eae:	577d                	li	a4,-1
    80000eb0:	177e                	sll	a4,a4,0x3f
    80000eb2:	8fd9                	or	a5,a5,a4
  asm volatile("csrw satp, %0" : : "r" (x));
    80000eb4:	18079073          	csrw	satp,a5
  asm volatile("sfence.vma zero, zero");
    80000eb8:	12000073          	sfence.vma

  // flush stale entries from the TLB.
  sfence_vma();
}
    80000ebc:	6422                	ld	s0,8(sp)
    80000ebe:	0141                	add	sp,sp,16
    80000ec0:	8082                	ret

0000000080000ec2 <walk>:
//   21..29 -- 9 bits of level-1 index.
//   12..20 -- 9 bits of level-0 index.
//    0..11 -- 12 bits of byte offset within the page.
pte_t *
walk(pagetable_t pagetable, uint64 va, int alloc)
{
    80000ec2:	7139                	add	sp,sp,-64
    80000ec4:	fc06                	sd	ra,56(sp)
    80000ec6:	f822                	sd	s0,48(sp)
    80000ec8:	f426                	sd	s1,40(sp)
    80000eca:	f04a                	sd	s2,32(sp)
    80000ecc:	ec4e                	sd	s3,24(sp)
    80000ece:	e852                	sd	s4,16(sp)
    80000ed0:	e456                	sd	s5,8(sp)
    80000ed2:	e05a                	sd	s6,0(sp)
    80000ed4:	0080                	add	s0,sp,64
    80000ed6:	84aa                	mv	s1,a0
    80000ed8:	89ae                	mv	s3,a1
    80000eda:	8ab2                	mv	s5,a2
  if(va >= MAXVA)
    80000edc:	57fd                	li	a5,-1
    80000ede:	83e9                	srl	a5,a5,0x1a
    80000ee0:	4a79                	li	s4,30
    panic("walk");

  for(int level = 2; level > 0; level--) {
    80000ee2:	4b31                	li	s6,12
  if(va >= MAXVA)
    80000ee4:	02b7fc63          	bgeu	a5,a1,80000f1c <walk+0x5a>
    panic("walk");
    80000ee8:	00006517          	auipc	a0,0x6
    80000eec:	1e050513          	add	a0,a0,480 # 800070c8 <digits+0x90>
    80000ef0:	8afff0ef          	jal	8000079e <panic>
    pte_t *pte = &pagetable[PX(level, va)];
    if(*pte & PTE_V) {
      pagetable = (pagetable_t)PTE2PA(*pte);
    } else {
      if(!alloc || (pagetable = (pde_t*)kalloc()) == 0)
    80000ef4:	060a8263          	beqz	s5,80000f58 <walk+0x96>
    80000ef8:	badff0ef          	jal	80000aa4 <kalloc>
    80000efc:	84aa                	mv	s1,a0
    80000efe:	c139                	beqz	a0,80000f44 <walk+0x82>
        return 0;
      memset(pagetable, 0, PGSIZE);
    80000f00:	6605                	lui	a2,0x1
    80000f02:	4581                	li	a1,0
    80000f04:	d45ff0ef          	jal	80000c48 <memset>
      *pte = PA2PTE(pagetable) | PTE_V;
    80000f08:	00c4d793          	srl	a5,s1,0xc
    80000f0c:	07aa                	sll	a5,a5,0xa
    80000f0e:	0017e793          	or	a5,a5,1
    80000f12:	00f93023          	sd	a5,0(s2)
  for(int level = 2; level > 0; level--) {
    80000f16:	3a5d                	addw	s4,s4,-9 # ffffffffffffeff7 <end+0xffffffff7ffde207>
    80000f18:	036a0063          	beq	s4,s6,80000f38 <walk+0x76>
    pte_t *pte = &pagetable[PX(level, va)];
    80000f1c:	0149d933          	srl	s2,s3,s4
    80000f20:	1ff97913          	and	s2,s2,511
    80000f24:	090e                	sll	s2,s2,0x3
    80000f26:	9926                	add	s2,s2,s1
    if(*pte & PTE_V) {
    80000f28:	00093483          	ld	s1,0(s2)
    80000f2c:	0014f793          	and	a5,s1,1
    80000f30:	d3f1                	beqz	a5,80000ef4 <walk+0x32>
      pagetable = (pagetable_t)PTE2PA(*pte);
    80000f32:	80a9                	srl	s1,s1,0xa
    80000f34:	04b2                	sll	s1,s1,0xc
    80000f36:	b7c5                	j	80000f16 <walk+0x54>
    }
  }
  return &pagetable[PX(0, va)];
    80000f38:	00c9d513          	srl	a0,s3,0xc
    80000f3c:	1ff57513          	and	a0,a0,511
    80000f40:	050e                	sll	a0,a0,0x3
    80000f42:	9526                	add	a0,a0,s1
}
    80000f44:	70e2                	ld	ra,56(sp)
    80000f46:	7442                	ld	s0,48(sp)
    80000f48:	74a2                	ld	s1,40(sp)
    80000f4a:	7902                	ld	s2,32(sp)
    80000f4c:	69e2                	ld	s3,24(sp)
    80000f4e:	6a42                	ld	s4,16(sp)
    80000f50:	6aa2                	ld	s5,8(sp)
    80000f52:	6b02                	ld	s6,0(sp)
    80000f54:	6121                	add	sp,sp,64
    80000f56:	8082                	ret
        return 0;
    80000f58:	4501                	li	a0,0
    80000f5a:	b7ed                	j	80000f44 <walk+0x82>

0000000080000f5c <walkaddr>:
walkaddr(pagetable_t pagetable, uint64 va)
{
  pte_t *pte;
  uint64 pa;

  if(va >= MAXVA)
    80000f5c:	57fd                	li	a5,-1
    80000f5e:	83e9                	srl	a5,a5,0x1a
    80000f60:	00b7f463          	bgeu	a5,a1,80000f68 <walkaddr+0xc>
    return 0;
    80000f64:	4501                	li	a0,0
    return 0;
  if((*pte & PTE_U) == 0)
    return 0;
  pa = PTE2PA(*pte);
  return pa;
}
    80000f66:	8082                	ret
{
    80000f68:	1141                	add	sp,sp,-16
    80000f6a:	e406                	sd	ra,8(sp)
    80000f6c:	e022                	sd	s0,0(sp)
    80000f6e:	0800                	add	s0,sp,16
  pte = walk(pagetable, va, 0);
    80000f70:	4601                	li	a2,0
    80000f72:	f51ff0ef          	jal	80000ec2 <walk>
  if(pte == 0)
    80000f76:	c105                	beqz	a0,80000f96 <walkaddr+0x3a>
  if((*pte & PTE_V) == 0)
    80000f78:	611c                	ld	a5,0(a0)
  if((*pte & PTE_U) == 0)
    80000f7a:	0117f693          	and	a3,a5,17
    80000f7e:	4745                	li	a4,17
    return 0;
    80000f80:	4501                	li	a0,0
  if((*pte & PTE_U) == 0)
    80000f82:	00e68663          	beq	a3,a4,80000f8e <walkaddr+0x32>
}
    80000f86:	60a2                	ld	ra,8(sp)
    80000f88:	6402                	ld	s0,0(sp)
    80000f8a:	0141                	add	sp,sp,16
    80000f8c:	8082                	ret
  pa = PTE2PA(*pte);
    80000f8e:	83a9                	srl	a5,a5,0xa
    80000f90:	00c79513          	sll	a0,a5,0xc
  return pa;
    80000f94:	bfcd                	j	80000f86 <walkaddr+0x2a>
    return 0;
    80000f96:	4501                	li	a0,0
    80000f98:	b7fd                	j	80000f86 <walkaddr+0x2a>

0000000080000f9a <mappages>:
// va and size MUST be page-aligned.
// Returns 0 on success, -1 if walk() couldn't
// allocate a needed page-table page.
int
mappages(pagetable_t pagetable, uint64 va, uint64 size, uint64 pa, int perm)
{
    80000f9a:	715d                	add	sp,sp,-80
    80000f9c:	e486                	sd	ra,72(sp)
    80000f9e:	e0a2                	sd	s0,64(sp)
    80000fa0:	fc26                	sd	s1,56(sp)
    80000fa2:	f84a                	sd	s2,48(sp)
    80000fa4:	f44e                	sd	s3,40(sp)
    80000fa6:	f052                	sd	s4,32(sp)
    80000fa8:	ec56                	sd	s5,24(sp)
    80000faa:	e85a                	sd	s6,16(sp)
    80000fac:	e45e                	sd	s7,8(sp)
    80000fae:	0880                	add	s0,sp,80
  uint64 a, last;
  pte_t *pte;

  if((va % PGSIZE) != 0)
    80000fb0:	03459793          	sll	a5,a1,0x34
    80000fb4:	e7a9                	bnez	a5,80000ffe <mappages+0x64>
    80000fb6:	8aaa                	mv	s5,a0
    80000fb8:	8b3a                	mv	s6,a4
    panic("mappages: va not aligned");

  if((size % PGSIZE) != 0)
    80000fba:	03461793          	sll	a5,a2,0x34
    80000fbe:	e7b1                	bnez	a5,8000100a <mappages+0x70>
    panic("mappages: size not aligned");

  if(size == 0)
    80000fc0:	ca39                	beqz	a2,80001016 <mappages+0x7c>
    panic("mappages: size");
  
  a = va;
  last = va + size - PGSIZE;
    80000fc2:	77fd                	lui	a5,0xfffff
    80000fc4:	963e                	add	a2,a2,a5
    80000fc6:	00b609b3          	add	s3,a2,a1
  a = va;
    80000fca:	892e                	mv	s2,a1
    80000fcc:	40b68a33          	sub	s4,a3,a1
    if(*pte & PTE_V)
      panic("mappages: remap");
    *pte = PA2PTE(pa) | perm | PTE_V;
    if(a == last)
      break;
    a += PGSIZE;
    80000fd0:	6b85                	lui	s7,0x1
    80000fd2:	012a04b3          	add	s1,s4,s2
    if((pte = walk(pagetable, a, 1)) == 0)
    80000fd6:	4605                	li	a2,1
    80000fd8:	85ca                	mv	a1,s2
    80000fda:	8556                	mv	a0,s5
    80000fdc:	ee7ff0ef          	jal	80000ec2 <walk>
    80000fe0:	c539                	beqz	a0,8000102e <mappages+0x94>
    if(*pte & PTE_V)
    80000fe2:	611c                	ld	a5,0(a0)
    80000fe4:	8b85                	and	a5,a5,1
    80000fe6:	ef95                	bnez	a5,80001022 <mappages+0x88>
    *pte = PA2PTE(pa) | perm | PTE_V;
    80000fe8:	80b1                	srl	s1,s1,0xc
    80000fea:	04aa                	sll	s1,s1,0xa
    80000fec:	0164e4b3          	or	s1,s1,s6
    80000ff0:	0014e493          	or	s1,s1,1
    80000ff4:	e104                	sd	s1,0(a0)
    if(a == last)
    80000ff6:	05390863          	beq	s2,s3,80001046 <mappages+0xac>
    a += PGSIZE;
    80000ffa:	995e                	add	s2,s2,s7
    if((pte = walk(pagetable, a, 1)) == 0)
    80000ffc:	bfd9                	j	80000fd2 <mappages+0x38>
    panic("mappages: va not aligned");
    80000ffe:	00006517          	auipc	a0,0x6
    80001002:	0d250513          	add	a0,a0,210 # 800070d0 <digits+0x98>
    80001006:	f98ff0ef          	jal	8000079e <panic>
    panic("mappages: size not aligned");
    8000100a:	00006517          	auipc	a0,0x6
    8000100e:	0e650513          	add	a0,a0,230 # 800070f0 <digits+0xb8>
    80001012:	f8cff0ef          	jal	8000079e <panic>
    panic("mappages: size");
    80001016:	00006517          	auipc	a0,0x6
    8000101a:	0fa50513          	add	a0,a0,250 # 80007110 <digits+0xd8>
    8000101e:	f80ff0ef          	jal	8000079e <panic>
      panic("mappages: remap");
    80001022:	00006517          	auipc	a0,0x6
    80001026:	0fe50513          	add	a0,a0,254 # 80007120 <digits+0xe8>
    8000102a:	f74ff0ef          	jal	8000079e <panic>
      return -1;
    8000102e:	557d                	li	a0,-1
    pa += PGSIZE;
  }
  return 0;
}
    80001030:	60a6                	ld	ra,72(sp)
    80001032:	6406                	ld	s0,64(sp)
    80001034:	74e2                	ld	s1,56(sp)
    80001036:	7942                	ld	s2,48(sp)
    80001038:	79a2                	ld	s3,40(sp)
    8000103a:	7a02                	ld	s4,32(sp)
    8000103c:	6ae2                	ld	s5,24(sp)
    8000103e:	6b42                	ld	s6,16(sp)
    80001040:	6ba2                	ld	s7,8(sp)
    80001042:	6161                	add	sp,sp,80
    80001044:	8082                	ret
  return 0;
    80001046:	4501                	li	a0,0
    80001048:	b7e5                	j	80001030 <mappages+0x96>

000000008000104a <kvmmap>:
{
    8000104a:	1141                	add	sp,sp,-16
    8000104c:	e406                	sd	ra,8(sp)
    8000104e:	e022                	sd	s0,0(sp)
    80001050:	0800                	add	s0,sp,16
    80001052:	87b6                	mv	a5,a3
  if(mappages(kpgtbl, va, sz, pa, perm) != 0)
    80001054:	86b2                	mv	a3,a2
    80001056:	863e                	mv	a2,a5
    80001058:	f43ff0ef          	jal	80000f9a <mappages>
    8000105c:	e509                	bnez	a0,80001066 <kvmmap+0x1c>
}
    8000105e:	60a2                	ld	ra,8(sp)
    80001060:	6402                	ld	s0,0(sp)
    80001062:	0141                	add	sp,sp,16
    80001064:	8082                	ret
    panic("kvmmap");
    80001066:	00006517          	auipc	a0,0x6
    8000106a:	0ca50513          	add	a0,a0,202 # 80007130 <digits+0xf8>
    8000106e:	f30ff0ef          	jal	8000079e <panic>

0000000080001072 <kvmmake>:
{
    80001072:	1101                	add	sp,sp,-32
    80001074:	ec06                	sd	ra,24(sp)
    80001076:	e822                	sd	s0,16(sp)
    80001078:	e426                	sd	s1,8(sp)
    8000107a:	e04a                	sd	s2,0(sp)
    8000107c:	1000                	add	s0,sp,32
  kpgtbl = (pagetable_t) kalloc();
    8000107e:	a27ff0ef          	jal	80000aa4 <kalloc>
    80001082:	84aa                	mv	s1,a0
  memset(kpgtbl, 0, PGSIZE);
    80001084:	6605                	lui	a2,0x1
    80001086:	4581                	li	a1,0
    80001088:	bc1ff0ef          	jal	80000c48 <memset>
  kvmmap(kpgtbl, UART0, UART0, PGSIZE, PTE_R | PTE_W);
    8000108c:	4719                	li	a4,6
    8000108e:	6685                	lui	a3,0x1
    80001090:	10000637          	lui	a2,0x10000
    80001094:	100005b7          	lui	a1,0x10000
    80001098:	8526                	mv	a0,s1
    8000109a:	fb1ff0ef          	jal	8000104a <kvmmap>
  kvmmap(kpgtbl, VIRTIO0, VIRTIO0, PGSIZE, PTE_R | PTE_W);
    8000109e:	4719                	li	a4,6
    800010a0:	6685                	lui	a3,0x1
    800010a2:	10001637          	lui	a2,0x10001
    800010a6:	100015b7          	lui	a1,0x10001
    800010aa:	8526                	mv	a0,s1
    800010ac:	f9fff0ef          	jal	8000104a <kvmmap>
  kvmmap(kpgtbl, PLIC, PLIC, 0x4000000, PTE_R | PTE_W);
    800010b0:	4719                	li	a4,6
    800010b2:	040006b7          	lui	a3,0x4000
    800010b6:	0c000637          	lui	a2,0xc000
    800010ba:	0c0005b7          	lui	a1,0xc000
    800010be:	8526                	mv	a0,s1
    800010c0:	f8bff0ef          	jal	8000104a <kvmmap>
  kvmmap(kpgtbl, KERNBASE, KERNBASE, (uint64)etext-KERNBASE, PTE_R | PTE_X);
    800010c4:	00006917          	auipc	s2,0x6
    800010c8:	f3c90913          	add	s2,s2,-196 # 80007000 <etext>
    800010cc:	4729                	li	a4,10
    800010ce:	80006697          	auipc	a3,0x80006
    800010d2:	f3268693          	add	a3,a3,-206 # 7000 <_entry-0x7fff9000>
    800010d6:	4605                	li	a2,1
    800010d8:	067e                	sll	a2,a2,0x1f
    800010da:	85b2                	mv	a1,a2
    800010dc:	8526                	mv	a0,s1
    800010de:	f6dff0ef          	jal	8000104a <kvmmap>
  kvmmap(kpgtbl, (uint64)etext, (uint64)etext, PHYSTOP-(uint64)etext, PTE_R | PTE_W);
    800010e2:	4719                	li	a4,6
    800010e4:	46c5                	li	a3,17
    800010e6:	06ee                	sll	a3,a3,0x1b
    800010e8:	412686b3          	sub	a3,a3,s2
    800010ec:	864a                	mv	a2,s2
    800010ee:	85ca                	mv	a1,s2
    800010f0:	8526                	mv	a0,s1
    800010f2:	f59ff0ef          	jal	8000104a <kvmmap>
  kvmmap(kpgtbl, TRAMPOLINE, (uint64)trampoline, PGSIZE, PTE_R | PTE_X);
    800010f6:	4729                	li	a4,10
    800010f8:	6685                	lui	a3,0x1
    800010fa:	00005617          	auipc	a2,0x5
    800010fe:	f0660613          	add	a2,a2,-250 # 80006000 <_trampoline>
    80001102:	040005b7          	lui	a1,0x4000
    80001106:	15fd                	add	a1,a1,-1 # 3ffffff <_entry-0x7c000001>
    80001108:	05b2                	sll	a1,a1,0xc
    8000110a:	8526                	mv	a0,s1
    8000110c:	f3fff0ef          	jal	8000104a <kvmmap>
  proc_mapstacks(kpgtbl);
    80001110:	8526                	mv	a0,s1
    80001112:	59a000ef          	jal	800016ac <proc_mapstacks>
}
    80001116:	8526                	mv	a0,s1
    80001118:	60e2                	ld	ra,24(sp)
    8000111a:	6442                	ld	s0,16(sp)
    8000111c:	64a2                	ld	s1,8(sp)
    8000111e:	6902                	ld	s2,0(sp)
    80001120:	6105                	add	sp,sp,32
    80001122:	8082                	ret

0000000080001124 <kvminit>:
{
    80001124:	1141                	add	sp,sp,-16
    80001126:	e406                	sd	ra,8(sp)
    80001128:	e022                	sd	s0,0(sp)
    8000112a:	0800                	add	s0,sp,16
  kernel_pagetable = kvmmake();
    8000112c:	f47ff0ef          	jal	80001072 <kvmmake>
    80001130:	00006797          	auipc	a5,0x6
    80001134:	72a7bc23          	sd	a0,1848(a5) # 80007868 <kernel_pagetable>
}
    80001138:	60a2                	ld	ra,8(sp)
    8000113a:	6402                	ld	s0,0(sp)
    8000113c:	0141                	add	sp,sp,16
    8000113e:	8082                	ret

0000000080001140 <uvmcreate>:

// create an empty user page table.
// returns 0 if out of memory.
pagetable_t
uvmcreate()
{
    80001140:	1101                	add	sp,sp,-32
    80001142:	ec06                	sd	ra,24(sp)
    80001144:	e822                	sd	s0,16(sp)
    80001146:	e426                	sd	s1,8(sp)
    80001148:	1000                	add	s0,sp,32
  pagetable_t pagetable;
  pagetable = (pagetable_t) kalloc();
    8000114a:	95bff0ef          	jal	80000aa4 <kalloc>
    8000114e:	84aa                	mv	s1,a0
  if(pagetable == 0)
    80001150:	c509                	beqz	a0,8000115a <uvmcreate+0x1a>
    return 0;
  memset(pagetable, 0, PGSIZE);
    80001152:	6605                	lui	a2,0x1
    80001154:	4581                	li	a1,0
    80001156:	af3ff0ef          	jal	80000c48 <memset>
  return pagetable;
}
    8000115a:	8526                	mv	a0,s1
    8000115c:	60e2                	ld	ra,24(sp)
    8000115e:	6442                	ld	s0,16(sp)
    80001160:	64a2                	ld	s1,8(sp)
    80001162:	6105                	add	sp,sp,32
    80001164:	8082                	ret

0000000080001166 <uvmunmap>:
// Remove npages of mappings starting from va. va must be
// page-aligned. It's OK if the mappings don't exist.
// Optionally free the physical memory.
void
uvmunmap(pagetable_t pagetable, uint64 va, uint64 npages, int do_free)
{
    80001166:	7139                	add	sp,sp,-64
    80001168:	fc06                	sd	ra,56(sp)
    8000116a:	f822                	sd	s0,48(sp)
    8000116c:	f426                	sd	s1,40(sp)
    8000116e:	f04a                	sd	s2,32(sp)
    80001170:	ec4e                	sd	s3,24(sp)
    80001172:	e852                	sd	s4,16(sp)
    80001174:	e456                	sd	s5,8(sp)
    80001176:	e05a                	sd	s6,0(sp)
    80001178:	0080                	add	s0,sp,64
  uint64 a;
  pte_t *pte;

  if((va % PGSIZE) != 0)
    8000117a:	03459793          	sll	a5,a1,0x34
    8000117e:	e785                	bnez	a5,800011a6 <uvmunmap+0x40>
    80001180:	8a2a                	mv	s4,a0
    80001182:	892e                	mv	s2,a1
    80001184:	8ab6                	mv	s5,a3
    panic("uvmunmap: not aligned");

  for(a = va; a < va + npages*PGSIZE; a += PGSIZE){
    80001186:	0632                	sll	a2,a2,0xc
    80001188:	00b609b3          	add	s3,a2,a1
    8000118c:	6b05                	lui	s6,0x1
    8000118e:	0335e763          	bltu	a1,s3,800011bc <uvmunmap+0x56>
      uint64 pa = PTE2PA(*pte);
      kfree((void*)pa);
    }
    *pte = 0;
  }
}
    80001192:	70e2                	ld	ra,56(sp)
    80001194:	7442                	ld	s0,48(sp)
    80001196:	74a2                	ld	s1,40(sp)
    80001198:	7902                	ld	s2,32(sp)
    8000119a:	69e2                	ld	s3,24(sp)
    8000119c:	6a42                	ld	s4,16(sp)
    8000119e:	6aa2                	ld	s5,8(sp)
    800011a0:	6b02                	ld	s6,0(sp)
    800011a2:	6121                	add	sp,sp,64
    800011a4:	8082                	ret
    panic("uvmunmap: not aligned");
    800011a6:	00006517          	auipc	a0,0x6
    800011aa:	f9250513          	add	a0,a0,-110 # 80007138 <digits+0x100>
    800011ae:	df0ff0ef          	jal	8000079e <panic>
    *pte = 0;
    800011b2:	0004b023          	sd	zero,0(s1)
  for(a = va; a < va + npages*PGSIZE; a += PGSIZE){
    800011b6:	995a                	add	s2,s2,s6
    800011b8:	fd397de3          	bgeu	s2,s3,80001192 <uvmunmap+0x2c>
    if((pte = walk(pagetable, a, 0)) == 0) // leaf page table entry allocated?
    800011bc:	4601                	li	a2,0
    800011be:	85ca                	mv	a1,s2
    800011c0:	8552                	mv	a0,s4
    800011c2:	d01ff0ef          	jal	80000ec2 <walk>
    800011c6:	84aa                	mv	s1,a0
    800011c8:	d57d                	beqz	a0,800011b6 <uvmunmap+0x50>
    if((*pte & PTE_V) == 0)  // has physical page been allocated?
    800011ca:	611c                	ld	a5,0(a0)
    800011cc:	0017f713          	and	a4,a5,1
    800011d0:	d37d                	beqz	a4,800011b6 <uvmunmap+0x50>
    if(do_free){
    800011d2:	fe0a80e3          	beqz	s5,800011b2 <uvmunmap+0x4c>
      uint64 pa = PTE2PA(*pte);
    800011d6:	83a9                	srl	a5,a5,0xa
      kfree((void*)pa);
    800011d8:	00c79513          	sll	a0,a5,0xc
    800011dc:	fe6ff0ef          	jal	800009c2 <kfree>
    800011e0:	bfc9                	j	800011b2 <uvmunmap+0x4c>

00000000800011e2 <uvmdealloc>:
// newsz.  oldsz and newsz need not be page-aligned, nor does newsz
// need to be less than oldsz.  oldsz can be larger than the actual
// process size.  Returns the new process size.
uint64
uvmdealloc(pagetable_t pagetable, uint64 oldsz, uint64 newsz)
{
    800011e2:	1101                	add	sp,sp,-32
    800011e4:	ec06                	sd	ra,24(sp)
    800011e6:	e822                	sd	s0,16(sp)
    800011e8:	e426                	sd	s1,8(sp)
    800011ea:	1000                	add	s0,sp,32
  if(newsz >= oldsz)
    return oldsz;
    800011ec:	84ae                	mv	s1,a1
  if(newsz >= oldsz)
    800011ee:	00b67d63          	bgeu	a2,a1,80001208 <uvmdealloc+0x26>
    800011f2:	84b2                	mv	s1,a2

  if(PGROUNDUP(newsz) < PGROUNDUP(oldsz)){
    800011f4:	6785                	lui	a5,0x1
    800011f6:	17fd                	add	a5,a5,-1 # fff <_entry-0x7ffff001>
    800011f8:	00f60733          	add	a4,a2,a5
    800011fc:	76fd                	lui	a3,0xfffff
    800011fe:	8f75                	and	a4,a4,a3
    80001200:	97ae                	add	a5,a5,a1
    80001202:	8ff5                	and	a5,a5,a3
    80001204:	00f76863          	bltu	a4,a5,80001214 <uvmdealloc+0x32>
    int npages = (PGROUNDUP(oldsz) - PGROUNDUP(newsz)) / PGSIZE;
    uvmunmap(pagetable, PGROUNDUP(newsz), npages, 1);
  }

  return newsz;
}
    80001208:	8526                	mv	a0,s1
    8000120a:	60e2                	ld	ra,24(sp)
    8000120c:	6442                	ld	s0,16(sp)
    8000120e:	64a2                	ld	s1,8(sp)
    80001210:	6105                	add	sp,sp,32
    80001212:	8082                	ret
    int npages = (PGROUNDUP(oldsz) - PGROUNDUP(newsz)) / PGSIZE;
    80001214:	8f99                	sub	a5,a5,a4
    80001216:	83b1                	srl	a5,a5,0xc
    uvmunmap(pagetable, PGROUNDUP(newsz), npages, 1);
    80001218:	4685                	li	a3,1
    8000121a:	0007861b          	sext.w	a2,a5
    8000121e:	85ba                	mv	a1,a4
    80001220:	f47ff0ef          	jal	80001166 <uvmunmap>
    80001224:	b7d5                	j	80001208 <uvmdealloc+0x26>

0000000080001226 <uvmalloc>:
  if(newsz < oldsz)
    80001226:	08b66963          	bltu	a2,a1,800012b8 <uvmalloc+0x92>
{
    8000122a:	7139                	add	sp,sp,-64
    8000122c:	fc06                	sd	ra,56(sp)
    8000122e:	f822                	sd	s0,48(sp)
    80001230:	f426                	sd	s1,40(sp)
    80001232:	f04a                	sd	s2,32(sp)
    80001234:	ec4e                	sd	s3,24(sp)
    80001236:	e852                	sd	s4,16(sp)
    80001238:	e456                	sd	s5,8(sp)
    8000123a:	e05a                	sd	s6,0(sp)
    8000123c:	0080                	add	s0,sp,64
    8000123e:	8aaa                	mv	s5,a0
    80001240:	8a32                	mv	s4,a2
  oldsz = PGROUNDUP(oldsz);
    80001242:	6785                	lui	a5,0x1
    80001244:	17fd                	add	a5,a5,-1 # fff <_entry-0x7ffff001>
    80001246:	95be                	add	a1,a1,a5
    80001248:	77fd                	lui	a5,0xfffff
    8000124a:	00f5f9b3          	and	s3,a1,a5
  for(a = oldsz; a < newsz; a += PGSIZE){
    8000124e:	06c9f763          	bgeu	s3,a2,800012bc <uvmalloc+0x96>
    80001252:	894e                	mv	s2,s3
    if(mappages(pagetable, a, PGSIZE, (uint64)mem, PTE_R|PTE_U|xperm) != 0){
    80001254:	0126eb13          	or	s6,a3,18
    mem = kalloc();
    80001258:	84dff0ef          	jal	80000aa4 <kalloc>
    8000125c:	84aa                	mv	s1,a0
    if(mem == 0){
    8000125e:	c11d                	beqz	a0,80001284 <uvmalloc+0x5e>
    memset(mem, 0, PGSIZE);
    80001260:	6605                	lui	a2,0x1
    80001262:	4581                	li	a1,0
    80001264:	9e5ff0ef          	jal	80000c48 <memset>
    if(mappages(pagetable, a, PGSIZE, (uint64)mem, PTE_R|PTE_U|xperm) != 0){
    80001268:	875a                	mv	a4,s6
    8000126a:	86a6                	mv	a3,s1
    8000126c:	6605                	lui	a2,0x1
    8000126e:	85ca                	mv	a1,s2
    80001270:	8556                	mv	a0,s5
    80001272:	d29ff0ef          	jal	80000f9a <mappages>
    80001276:	e51d                	bnez	a0,800012a4 <uvmalloc+0x7e>
  for(a = oldsz; a < newsz; a += PGSIZE){
    80001278:	6785                	lui	a5,0x1
    8000127a:	993e                	add	s2,s2,a5
    8000127c:	fd496ee3          	bltu	s2,s4,80001258 <uvmalloc+0x32>
  return newsz;
    80001280:	8552                	mv	a0,s4
    80001282:	a039                	j	80001290 <uvmalloc+0x6a>
      uvmdealloc(pagetable, a, oldsz);
    80001284:	864e                	mv	a2,s3
    80001286:	85ca                	mv	a1,s2
    80001288:	8556                	mv	a0,s5
    8000128a:	f59ff0ef          	jal	800011e2 <uvmdealloc>
      return 0;
    8000128e:	4501                	li	a0,0
}
    80001290:	70e2                	ld	ra,56(sp)
    80001292:	7442                	ld	s0,48(sp)
    80001294:	74a2                	ld	s1,40(sp)
    80001296:	7902                	ld	s2,32(sp)
    80001298:	69e2                	ld	s3,24(sp)
    8000129a:	6a42                	ld	s4,16(sp)
    8000129c:	6aa2                	ld	s5,8(sp)
    8000129e:	6b02                	ld	s6,0(sp)
    800012a0:	6121                	add	sp,sp,64
    800012a2:	8082                	ret
      kfree(mem);
    800012a4:	8526                	mv	a0,s1
    800012a6:	f1cff0ef          	jal	800009c2 <kfree>
      uvmdealloc(pagetable, a, oldsz);
    800012aa:	864e                	mv	a2,s3
    800012ac:	85ca                	mv	a1,s2
    800012ae:	8556                	mv	a0,s5
    800012b0:	f33ff0ef          	jal	800011e2 <uvmdealloc>
      return 0;
    800012b4:	4501                	li	a0,0
    800012b6:	bfe9                	j	80001290 <uvmalloc+0x6a>
    return oldsz;
    800012b8:	852e                	mv	a0,a1
}
    800012ba:	8082                	ret
  return newsz;
    800012bc:	8532                	mv	a0,a2
    800012be:	bfc9                	j	80001290 <uvmalloc+0x6a>

00000000800012c0 <freewalk>:

// Recursively free page-table pages.
// All leaf mappings must already have been removed.
void
freewalk(pagetable_t pagetable)
{
    800012c0:	7179                	add	sp,sp,-48
    800012c2:	f406                	sd	ra,40(sp)
    800012c4:	f022                	sd	s0,32(sp)
    800012c6:	ec26                	sd	s1,24(sp)
    800012c8:	e84a                	sd	s2,16(sp)
    800012ca:	e44e                	sd	s3,8(sp)
    800012cc:	e052                	sd	s4,0(sp)
    800012ce:	1800                	add	s0,sp,48
    800012d0:	8a2a                	mv	s4,a0
  // there are 2^9 = 512 PTEs in a page table.
  for(int i = 0; i < 512; i++){
    800012d2:	84aa                	mv	s1,a0
    800012d4:	6905                	lui	s2,0x1
    800012d6:	992a                	add	s2,s2,a0
    pte_t pte = pagetable[i];
    if((pte & PTE_V) && (pte & (PTE_R|PTE_W|PTE_X)) == 0){
    800012d8:	4985                	li	s3,1
    800012da:	a819                	j	800012f0 <freewalk+0x30>
      // this PTE points to a lower-level page table.
      uint64 child = PTE2PA(pte);
    800012dc:	83a9                	srl	a5,a5,0xa
      freewalk((pagetable_t)child);
    800012de:	00c79513          	sll	a0,a5,0xc
    800012e2:	fdfff0ef          	jal	800012c0 <freewalk>
      pagetable[i] = 0;
    800012e6:	0004b023          	sd	zero,0(s1)
  for(int i = 0; i < 512; i++){
    800012ea:	04a1                	add	s1,s1,8
    800012ec:	01248f63          	beq	s1,s2,8000130a <freewalk+0x4a>
    pte_t pte = pagetable[i];
    800012f0:	609c                	ld	a5,0(s1)
    if((pte & PTE_V) && (pte & (PTE_R|PTE_W|PTE_X)) == 0){
    800012f2:	00f7f713          	and	a4,a5,15
    800012f6:	ff3703e3          	beq	a4,s3,800012dc <freewalk+0x1c>
    } else if(pte & PTE_V){
    800012fa:	8b85                	and	a5,a5,1
    800012fc:	d7fd                	beqz	a5,800012ea <freewalk+0x2a>
      panic("freewalk: leaf");
    800012fe:	00006517          	auipc	a0,0x6
    80001302:	e5250513          	add	a0,a0,-430 # 80007150 <digits+0x118>
    80001306:	c98ff0ef          	jal	8000079e <panic>
    }
  }
  kfree((void*)pagetable);
    8000130a:	8552                	mv	a0,s4
    8000130c:	eb6ff0ef          	jal	800009c2 <kfree>
}
    80001310:	70a2                	ld	ra,40(sp)
    80001312:	7402                	ld	s0,32(sp)
    80001314:	64e2                	ld	s1,24(sp)
    80001316:	6942                	ld	s2,16(sp)
    80001318:	69a2                	ld	s3,8(sp)
    8000131a:	6a02                	ld	s4,0(sp)
    8000131c:	6145                	add	sp,sp,48
    8000131e:	8082                	ret

0000000080001320 <uvmfree>:

// Free user memory pages,
// then free page-table pages.
void
uvmfree(pagetable_t pagetable, uint64 sz)
{
    80001320:	1101                	add	sp,sp,-32
    80001322:	ec06                	sd	ra,24(sp)
    80001324:	e822                	sd	s0,16(sp)
    80001326:	e426                	sd	s1,8(sp)
    80001328:	1000                	add	s0,sp,32
    8000132a:	84aa                	mv	s1,a0
  if(sz > 0)
    8000132c:	e989                	bnez	a1,8000133e <uvmfree+0x1e>
    uvmunmap(pagetable, 0, PGROUNDUP(sz)/PGSIZE, 1);
  freewalk(pagetable);
    8000132e:	8526                	mv	a0,s1
    80001330:	f91ff0ef          	jal	800012c0 <freewalk>
}
    80001334:	60e2                	ld	ra,24(sp)
    80001336:	6442                	ld	s0,16(sp)
    80001338:	64a2                	ld	s1,8(sp)
    8000133a:	6105                	add	sp,sp,32
    8000133c:	8082                	ret
    uvmunmap(pagetable, 0, PGROUNDUP(sz)/PGSIZE, 1);
    8000133e:	6785                	lui	a5,0x1
    80001340:	17fd                	add	a5,a5,-1 # fff <_entry-0x7ffff001>
    80001342:	95be                	add	a1,a1,a5
    80001344:	4685                	li	a3,1
    80001346:	00c5d613          	srl	a2,a1,0xc
    8000134a:	4581                	li	a1,0
    8000134c:	e1bff0ef          	jal	80001166 <uvmunmap>
    80001350:	bff9                	j	8000132e <uvmfree+0xe>

0000000080001352 <uvmcopy>:
  pte_t *pte;
  uint64 pa, i;
  uint flags;
  char *mem;

  for(i = 0; i < sz; i += PGSIZE){
    80001352:	ce49                	beqz	a2,800013ec <uvmcopy+0x9a>
{
    80001354:	715d                	add	sp,sp,-80
    80001356:	e486                	sd	ra,72(sp)
    80001358:	e0a2                	sd	s0,64(sp)
    8000135a:	fc26                	sd	s1,56(sp)
    8000135c:	f84a                	sd	s2,48(sp)
    8000135e:	f44e                	sd	s3,40(sp)
    80001360:	f052                	sd	s4,32(sp)
    80001362:	ec56                	sd	s5,24(sp)
    80001364:	e85a                	sd	s6,16(sp)
    80001366:	e45e                	sd	s7,8(sp)
    80001368:	0880                	add	s0,sp,80
    8000136a:	8aaa                	mv	s5,a0
    8000136c:	8b2e                	mv	s6,a1
    8000136e:	8a32                	mv	s4,a2
  for(i = 0; i < sz; i += PGSIZE){
    80001370:	4481                	li	s1,0
    80001372:	a029                	j	8000137c <uvmcopy+0x2a>
    80001374:	6785                	lui	a5,0x1
    80001376:	94be                	add	s1,s1,a5
    80001378:	0544fe63          	bgeu	s1,s4,800013d4 <uvmcopy+0x82>
    if((pte = walk(old, i, 0)) == 0)
    8000137c:	4601                	li	a2,0
    8000137e:	85a6                	mv	a1,s1
    80001380:	8556                	mv	a0,s5
    80001382:	b41ff0ef          	jal	80000ec2 <walk>
    80001386:	d57d                	beqz	a0,80001374 <uvmcopy+0x22>
      continue;   // page table entry hasn't been allocated
    if((*pte & PTE_V) == 0)
    80001388:	6118                	ld	a4,0(a0)
    8000138a:	00177793          	and	a5,a4,1
    8000138e:	d3fd                	beqz	a5,80001374 <uvmcopy+0x22>
      continue;   // physical page hasn't been allocated
    pa = PTE2PA(*pte);
    80001390:	00a75593          	srl	a1,a4,0xa
    80001394:	00c59b93          	sll	s7,a1,0xc
    flags = PTE_FLAGS(*pte);
    80001398:	3ff77913          	and	s2,a4,1023
    if((mem = kalloc()) == 0)
    8000139c:	f08ff0ef          	jal	80000aa4 <kalloc>
    800013a0:	89aa                	mv	s3,a0
    800013a2:	c105                	beqz	a0,800013c2 <uvmcopy+0x70>
      goto err;
    memmove(mem, (char*)pa, PGSIZE);
    800013a4:	6605                	lui	a2,0x1
    800013a6:	85de                	mv	a1,s7
    800013a8:	8fdff0ef          	jal	80000ca4 <memmove>
    if(mappages(new, i, PGSIZE, (uint64)mem, flags) != 0){
    800013ac:	874a                	mv	a4,s2
    800013ae:	86ce                	mv	a3,s3
    800013b0:	6605                	lui	a2,0x1
    800013b2:	85a6                	mv	a1,s1
    800013b4:	855a                	mv	a0,s6
    800013b6:	be5ff0ef          	jal	80000f9a <mappages>
    800013ba:	dd4d                	beqz	a0,80001374 <uvmcopy+0x22>
      kfree(mem);
    800013bc:	854e                	mv	a0,s3
    800013be:	e04ff0ef          	jal	800009c2 <kfree>
    }
  }
  return 0;

 err:
  uvmunmap(new, 0, i / PGSIZE, 1);
    800013c2:	4685                	li	a3,1
    800013c4:	00c4d613          	srl	a2,s1,0xc
    800013c8:	4581                	li	a1,0
    800013ca:	855a                	mv	a0,s6
    800013cc:	d9bff0ef          	jal	80001166 <uvmunmap>
  return -1;
    800013d0:	557d                	li	a0,-1
    800013d2:	a011                	j	800013d6 <uvmcopy+0x84>
  return 0;
    800013d4:	4501                	li	a0,0
}
    800013d6:	60a6                	ld	ra,72(sp)
    800013d8:	6406                	ld	s0,64(sp)
    800013da:	74e2                	ld	s1,56(sp)
    800013dc:	7942                	ld	s2,48(sp)
    800013de:	79a2                	ld	s3,40(sp)
    800013e0:	7a02                	ld	s4,32(sp)
    800013e2:	6ae2                	ld	s5,24(sp)
    800013e4:	6b42                	ld	s6,16(sp)
    800013e6:	6ba2                	ld	s7,8(sp)
    800013e8:	6161                	add	sp,sp,80
    800013ea:	8082                	ret
  return 0;
    800013ec:	4501                	li	a0,0
}
    800013ee:	8082                	ret

00000000800013f0 <uvmclear>:

// mark a PTE invalid for user access.
// used by exec for the user stack guard page.
void
uvmclear(pagetable_t pagetable, uint64 va)
{
    800013f0:	1141                	add	sp,sp,-16
    800013f2:	e406                	sd	ra,8(sp)
    800013f4:	e022                	sd	s0,0(sp)
    800013f6:	0800                	add	s0,sp,16
  pte_t *pte;
  
  pte = walk(pagetable, va, 0);
    800013f8:	4601                	li	a2,0
    800013fa:	ac9ff0ef          	jal	80000ec2 <walk>
  if(pte == 0)
    800013fe:	c901                	beqz	a0,8000140e <uvmclear+0x1e>
    panic("uvmclear");
  *pte &= ~PTE_U;
    80001400:	611c                	ld	a5,0(a0)
    80001402:	9bbd                	and	a5,a5,-17
    80001404:	e11c                	sd	a5,0(a0)
}
    80001406:	60a2                	ld	ra,8(sp)
    80001408:	6402                	ld	s0,0(sp)
    8000140a:	0141                	add	sp,sp,16
    8000140c:	8082                	ret
    panic("uvmclear");
    8000140e:	00006517          	auipc	a0,0x6
    80001412:	d5250513          	add	a0,a0,-686 # 80007160 <digits+0x128>
    80001416:	b88ff0ef          	jal	8000079e <panic>

000000008000141a <copyinstr>:
copyinstr(pagetable_t pagetable, char *dst, uint64 srcva, uint64 max)
{
  uint64 n, va0, pa0;
  int got_null = 0;

  while(got_null == 0 && max > 0){
    8000141a:	c2cd                	beqz	a3,800014bc <copyinstr+0xa2>
{
    8000141c:	715d                	add	sp,sp,-80
    8000141e:	e486                	sd	ra,72(sp)
    80001420:	e0a2                	sd	s0,64(sp)
    80001422:	fc26                	sd	s1,56(sp)
    80001424:	f84a                	sd	s2,48(sp)
    80001426:	f44e                	sd	s3,40(sp)
    80001428:	f052                	sd	s4,32(sp)
    8000142a:	ec56                	sd	s5,24(sp)
    8000142c:	e85a                	sd	s6,16(sp)
    8000142e:	e45e                	sd	s7,8(sp)
    80001430:	0880                	add	s0,sp,80
    80001432:	8a2a                	mv	s4,a0
    80001434:	8b2e                	mv	s6,a1
    80001436:	8bb2                	mv	s7,a2
    80001438:	84b6                	mv	s1,a3
    va0 = PGROUNDDOWN(srcva);
    8000143a:	7afd                	lui	s5,0xfffff
    pa0 = walkaddr(pagetable, va0);
    if(pa0 == 0)
      return -1;
    n = PGSIZE - (srcva - va0);
    8000143c:	6985                	lui	s3,0x1
    8000143e:	a02d                	j	80001468 <copyinstr+0x4e>
      n = max;

    char *p = (char *) (pa0 + (srcva - va0));
    while(n > 0){
      if(*p == '\0'){
        *dst = '\0';
    80001440:	00078023          	sb	zero,0(a5) # 1000 <_entry-0x7ffff000>
    80001444:	4785                	li	a5,1
      dst++;
    }

    srcva = va0 + PGSIZE;
  }
  if(got_null){
    80001446:	37fd                	addw	a5,a5,-1
    80001448:	0007851b          	sext.w	a0,a5
    return 0;
  } else {
    return -1;
  }
}
    8000144c:	60a6                	ld	ra,72(sp)
    8000144e:	6406                	ld	s0,64(sp)
    80001450:	74e2                	ld	s1,56(sp)
    80001452:	7942                	ld	s2,48(sp)
    80001454:	79a2                	ld	s3,40(sp)
    80001456:	7a02                	ld	s4,32(sp)
    80001458:	6ae2                	ld	s5,24(sp)
    8000145a:	6b42                	ld	s6,16(sp)
    8000145c:	6ba2                	ld	s7,8(sp)
    8000145e:	6161                	add	sp,sp,80
    80001460:	8082                	ret
    srcva = va0 + PGSIZE;
    80001462:	01390bb3          	add	s7,s2,s3
  while(got_null == 0 && max > 0){
    80001466:	c4b9                	beqz	s1,800014b4 <copyinstr+0x9a>
    va0 = PGROUNDDOWN(srcva);
    80001468:	015bf933          	and	s2,s7,s5
    pa0 = walkaddr(pagetable, va0);
    8000146c:	85ca                	mv	a1,s2
    8000146e:	8552                	mv	a0,s4
    80001470:	aedff0ef          	jal	80000f5c <walkaddr>
    if(pa0 == 0)
    80001474:	c131                	beqz	a0,800014b8 <copyinstr+0x9e>
    n = PGSIZE - (srcva - va0);
    80001476:	417906b3          	sub	a3,s2,s7
    8000147a:	96ce                	add	a3,a3,s3
    8000147c:	00d4f363          	bgeu	s1,a3,80001482 <copyinstr+0x68>
    80001480:	86a6                	mv	a3,s1
    char *p = (char *) (pa0 + (srcva - va0));
    80001482:	955e                	add	a0,a0,s7
    80001484:	41250533          	sub	a0,a0,s2
    while(n > 0){
    80001488:	dee9                	beqz	a3,80001462 <copyinstr+0x48>
    8000148a:	87da                	mv	a5,s6
    8000148c:	885a                	mv	a6,s6
      if(*p == '\0'){
    8000148e:	41650633          	sub	a2,a0,s6
    while(n > 0){
    80001492:	96da                	add	a3,a3,s6
    80001494:	85be                	mv	a1,a5
      if(*p == '\0'){
    80001496:	00f60733          	add	a4,a2,a5
    8000149a:	00074703          	lbu	a4,0(a4)
    8000149e:	d34d                	beqz	a4,80001440 <copyinstr+0x26>
        *dst = *p;
    800014a0:	00e78023          	sb	a4,0(a5)
      dst++;
    800014a4:	0785                	add	a5,a5,1
    while(n > 0){
    800014a6:	fed797e3          	bne	a5,a3,80001494 <copyinstr+0x7a>
    800014aa:	14fd                	add	s1,s1,-1
    800014ac:	94c2                	add	s1,s1,a6
      --max;
    800014ae:	8c8d                	sub	s1,s1,a1
      dst++;
    800014b0:	8b3e                	mv	s6,a5
    800014b2:	bf45                	j	80001462 <copyinstr+0x48>
    800014b4:	4781                	li	a5,0
    800014b6:	bf41                	j	80001446 <copyinstr+0x2c>
      return -1;
    800014b8:	557d                	li	a0,-1
    800014ba:	bf49                	j	8000144c <copyinstr+0x32>
  int got_null = 0;
    800014bc:	4781                	li	a5,0
  if(got_null){
    800014be:	37fd                	addw	a5,a5,-1
    800014c0:	0007851b          	sext.w	a0,a5
}
    800014c4:	8082                	ret

00000000800014c6 <ismapped>:
  return mem;
}

int
ismapped(pagetable_t pagetable, uint64 va)
{
    800014c6:	1141                	add	sp,sp,-16
    800014c8:	e406                	sd	ra,8(sp)
    800014ca:	e022                	sd	s0,0(sp)
    800014cc:	0800                	add	s0,sp,16
  pte_t *pte = walk(pagetable, va, 0);
    800014ce:	4601                	li	a2,0
    800014d0:	9f3ff0ef          	jal	80000ec2 <walk>
  if (pte == 0) {
    800014d4:	c519                	beqz	a0,800014e2 <ismapped+0x1c>
    return 0;
  }
  if (*pte & PTE_V){
    800014d6:	6108                	ld	a0,0(a0)
    800014d8:	8905                	and	a0,a0,1
    return 1;
  }
  return 0;
}
    800014da:	60a2                	ld	ra,8(sp)
    800014dc:	6402                	ld	s0,0(sp)
    800014de:	0141                	add	sp,sp,16
    800014e0:	8082                	ret
    return 0;
    800014e2:	4501                	li	a0,0
    800014e4:	bfdd                	j	800014da <ismapped+0x14>

00000000800014e6 <vmfault>:
{
    800014e6:	7179                	add	sp,sp,-48
    800014e8:	f406                	sd	ra,40(sp)
    800014ea:	f022                	sd	s0,32(sp)
    800014ec:	ec26                	sd	s1,24(sp)
    800014ee:	e84a                	sd	s2,16(sp)
    800014f0:	e44e                	sd	s3,8(sp)
    800014f2:	e052                	sd	s4,0(sp)
    800014f4:	1800                	add	s0,sp,48
    800014f6:	89aa                	mv	s3,a0
    800014f8:	84ae                	mv	s1,a1
  struct proc *p = myproc();
    800014fa:	310000ef          	jal	8000180a <myproc>
  if (va >= p->sz)
    800014fe:	653c                	ld	a5,72(a0)
    80001500:	00f4ec63          	bltu	s1,a5,80001518 <vmfault+0x32>
    return 0;
    80001504:	4981                	li	s3,0
}
    80001506:	854e                	mv	a0,s3
    80001508:	70a2                	ld	ra,40(sp)
    8000150a:	7402                	ld	s0,32(sp)
    8000150c:	64e2                	ld	s1,24(sp)
    8000150e:	6942                	ld	s2,16(sp)
    80001510:	69a2                	ld	s3,8(sp)
    80001512:	6a02                	ld	s4,0(sp)
    80001514:	6145                	add	sp,sp,48
    80001516:	8082                	ret
    80001518:	892a                	mv	s2,a0
  va = PGROUNDDOWN(va);
    8000151a:	77fd                	lui	a5,0xfffff
    8000151c:	8cfd                	and	s1,s1,a5
  if(ismapped(pagetable, va)) {
    8000151e:	85a6                	mv	a1,s1
    80001520:	854e                	mv	a0,s3
    80001522:	fa5ff0ef          	jal	800014c6 <ismapped>
    return 0;
    80001526:	4981                	li	s3,0
  if(ismapped(pagetable, va)) {
    80001528:	fd79                	bnez	a0,80001506 <vmfault+0x20>
  mem = (uint64) kalloc();
    8000152a:	d7aff0ef          	jal	80000aa4 <kalloc>
    8000152e:	8a2a                	mv	s4,a0
  if(mem == 0)
    80001530:	d979                	beqz	a0,80001506 <vmfault+0x20>
  mem = (uint64) kalloc();
    80001532:	89aa                	mv	s3,a0
  memset((void *) mem, 0, PGSIZE);
    80001534:	6605                	lui	a2,0x1
    80001536:	4581                	li	a1,0
    80001538:	f10ff0ef          	jal	80000c48 <memset>
  if (mappages(p->pagetable, va, PGSIZE, mem, PTE_W|PTE_U|PTE_R) != 0) {
    8000153c:	4759                	li	a4,22
    8000153e:	86d2                	mv	a3,s4
    80001540:	6605                	lui	a2,0x1
    80001542:	85a6                	mv	a1,s1
    80001544:	05093503          	ld	a0,80(s2) # 1050 <_entry-0x7fffefb0>
    80001548:	a53ff0ef          	jal	80000f9a <mappages>
    8000154c:	dd4d                	beqz	a0,80001506 <vmfault+0x20>
    kfree((void *)mem);
    8000154e:	8552                	mv	a0,s4
    80001550:	c72ff0ef          	jal	800009c2 <kfree>
    return 0;
    80001554:	4981                	li	s3,0
    80001556:	bf45                	j	80001506 <vmfault+0x20>

0000000080001558 <copyout>:
  while(len > 0){
    80001558:	cec1                	beqz	a3,800015f0 <copyout+0x98>
{
    8000155a:	711d                	add	sp,sp,-96
    8000155c:	ec86                	sd	ra,88(sp)
    8000155e:	e8a2                	sd	s0,80(sp)
    80001560:	e4a6                	sd	s1,72(sp)
    80001562:	e0ca                	sd	s2,64(sp)
    80001564:	fc4e                	sd	s3,56(sp)
    80001566:	f852                	sd	s4,48(sp)
    80001568:	f456                	sd	s5,40(sp)
    8000156a:	f05a                	sd	s6,32(sp)
    8000156c:	ec5e                	sd	s7,24(sp)
    8000156e:	e862                	sd	s8,16(sp)
    80001570:	e466                	sd	s9,8(sp)
    80001572:	e06a                	sd	s10,0(sp)
    80001574:	1080                	add	s0,sp,96
    80001576:	8c2a                	mv	s8,a0
    80001578:	8b2e                	mv	s6,a1
    8000157a:	8bb2                	mv	s7,a2
    8000157c:	8a36                	mv	s4,a3
    va0 = PGROUNDDOWN(dstva);
    8000157e:	74fd                	lui	s1,0xfffff
    80001580:	8ced                	and	s1,s1,a1
    if(va0 >= MAXVA)
    80001582:	57fd                	li	a5,-1
    80001584:	83e9                	srl	a5,a5,0x1a
    80001586:	0697e763          	bltu	a5,s1,800015f4 <copyout+0x9c>
    8000158a:	6d05                	lui	s10,0x1
    8000158c:	8cbe                	mv	s9,a5
    8000158e:	a015                	j	800015b2 <copyout+0x5a>
    memmove((void *)(pa0 + (dstva - va0)), src, n);
    80001590:	409b0533          	sub	a0,s6,s1
    80001594:	0009861b          	sext.w	a2,s3
    80001598:	85de                	mv	a1,s7
    8000159a:	954a                	add	a0,a0,s2
    8000159c:	f08ff0ef          	jal	80000ca4 <memmove>
    len -= n;
    800015a0:	413a0a33          	sub	s4,s4,s3
    src += n;
    800015a4:	9bce                	add	s7,s7,s3
  while(len > 0){
    800015a6:	040a0363          	beqz	s4,800015ec <copyout+0x94>
    if(va0 >= MAXVA)
    800015aa:	055ce763          	bltu	s9,s5,800015f8 <copyout+0xa0>
    va0 = PGROUNDDOWN(dstva);
    800015ae:	84d6                	mv	s1,s5
    dstva = va0 + PGSIZE;
    800015b0:	8b56                	mv	s6,s5
    pa0 = walkaddr(pagetable, va0);
    800015b2:	85a6                	mv	a1,s1
    800015b4:	8562                	mv	a0,s8
    800015b6:	9a7ff0ef          	jal	80000f5c <walkaddr>
    800015ba:	892a                	mv	s2,a0
    if(pa0 == 0) {
    800015bc:	e901                	bnez	a0,800015cc <copyout+0x74>
      if((pa0 = vmfault(pagetable, va0, 0)) == 0) {
    800015be:	4601                	li	a2,0
    800015c0:	85a6                	mv	a1,s1
    800015c2:	8562                	mv	a0,s8
    800015c4:	f23ff0ef          	jal	800014e6 <vmfault>
    800015c8:	892a                	mv	s2,a0
    800015ca:	c90d                	beqz	a0,800015fc <copyout+0xa4>
    pte = walk(pagetable, va0, 0);
    800015cc:	4601                	li	a2,0
    800015ce:	85a6                	mv	a1,s1
    800015d0:	8562                	mv	a0,s8
    800015d2:	8f1ff0ef          	jal	80000ec2 <walk>
    if((*pte & PTE_W) == 0)
    800015d6:	611c                	ld	a5,0(a0)
    800015d8:	8b91                	and	a5,a5,4
    800015da:	c39d                	beqz	a5,80001600 <copyout+0xa8>
    n = PGSIZE - (dstva - va0);
    800015dc:	01a48ab3          	add	s5,s1,s10
    800015e0:	416a89b3          	sub	s3,s5,s6
    800015e4:	fb3a76e3          	bgeu	s4,s3,80001590 <copyout+0x38>
    800015e8:	89d2                	mv	s3,s4
    800015ea:	b75d                	j	80001590 <copyout+0x38>
  return 0;
    800015ec:	4501                	li	a0,0
    800015ee:	a811                	j	80001602 <copyout+0xaa>
    800015f0:	4501                	li	a0,0
}
    800015f2:	8082                	ret
      return -1;
    800015f4:	557d                	li	a0,-1
    800015f6:	a031                	j	80001602 <copyout+0xaa>
    800015f8:	557d                	li	a0,-1
    800015fa:	a021                	j	80001602 <copyout+0xaa>
        return -1;
    800015fc:	557d                	li	a0,-1
    800015fe:	a011                	j	80001602 <copyout+0xaa>
      return -1;
    80001600:	557d                	li	a0,-1
}
    80001602:	60e6                	ld	ra,88(sp)
    80001604:	6446                	ld	s0,80(sp)
    80001606:	64a6                	ld	s1,72(sp)
    80001608:	6906                	ld	s2,64(sp)
    8000160a:	79e2                	ld	s3,56(sp)
    8000160c:	7a42                	ld	s4,48(sp)
    8000160e:	7aa2                	ld	s5,40(sp)
    80001610:	7b02                	ld	s6,32(sp)
    80001612:	6be2                	ld	s7,24(sp)
    80001614:	6c42                	ld	s8,16(sp)
    80001616:	6ca2                	ld	s9,8(sp)
    80001618:	6d02                	ld	s10,0(sp)
    8000161a:	6125                	add	sp,sp,96
    8000161c:	8082                	ret

000000008000161e <copyin>:
  while(len > 0){
    8000161e:	c6c9                	beqz	a3,800016a8 <copyin+0x8a>
{
    80001620:	715d                	add	sp,sp,-80
    80001622:	e486                	sd	ra,72(sp)
    80001624:	e0a2                	sd	s0,64(sp)
    80001626:	fc26                	sd	s1,56(sp)
    80001628:	f84a                	sd	s2,48(sp)
    8000162a:	f44e                	sd	s3,40(sp)
    8000162c:	f052                	sd	s4,32(sp)
    8000162e:	ec56                	sd	s5,24(sp)
    80001630:	e85a                	sd	s6,16(sp)
    80001632:	e45e                	sd	s7,8(sp)
    80001634:	e062                	sd	s8,0(sp)
    80001636:	0880                	add	s0,sp,80
    80001638:	8baa                	mv	s7,a0
    8000163a:	8aae                	mv	s5,a1
    8000163c:	8932                	mv	s2,a2
    8000163e:	8a36                	mv	s4,a3
    va0 = PGROUNDDOWN(srcva);
    80001640:	7c7d                	lui	s8,0xfffff
    n = PGSIZE - (srcva - va0);
    80001642:	6b05                	lui	s6,0x1
    80001644:	a035                	j	80001670 <copyin+0x52>
    80001646:	412984b3          	sub	s1,s3,s2
    8000164a:	94da                	add	s1,s1,s6
    8000164c:	009a7363          	bgeu	s4,s1,80001652 <copyin+0x34>
    80001650:	84d2                	mv	s1,s4
    memmove(dst, (void *)(pa0 + (srcva - va0)), n);
    80001652:	413905b3          	sub	a1,s2,s3
    80001656:	0004861b          	sext.w	a2,s1
    8000165a:	95aa                	add	a1,a1,a0
    8000165c:	8556                	mv	a0,s5
    8000165e:	e46ff0ef          	jal	80000ca4 <memmove>
    len -= n;
    80001662:	409a0a33          	sub	s4,s4,s1
    dst += n;
    80001666:	9aa6                	add	s5,s5,s1
    srcva = va0 + PGSIZE;
    80001668:	01698933          	add	s2,s3,s6
  while(len > 0){
    8000166c:	020a0163          	beqz	s4,8000168e <copyin+0x70>
    va0 = PGROUNDDOWN(srcva);
    80001670:	018979b3          	and	s3,s2,s8
    pa0 = walkaddr(pagetable, va0);
    80001674:	85ce                	mv	a1,s3
    80001676:	855e                	mv	a0,s7
    80001678:	8e5ff0ef          	jal	80000f5c <walkaddr>
    if(pa0 == 0) {
    8000167c:	f569                	bnez	a0,80001646 <copyin+0x28>
      if((pa0 = vmfault(pagetable, va0, 0)) == 0) {
    8000167e:	4601                	li	a2,0
    80001680:	85ce                	mv	a1,s3
    80001682:	855e                	mv	a0,s7
    80001684:	e63ff0ef          	jal	800014e6 <vmfault>
    80001688:	fd5d                	bnez	a0,80001646 <copyin+0x28>
        return -1;
    8000168a:	557d                	li	a0,-1
    8000168c:	a011                	j	80001690 <copyin+0x72>
  return 0;
    8000168e:	4501                	li	a0,0
}
    80001690:	60a6                	ld	ra,72(sp)
    80001692:	6406                	ld	s0,64(sp)
    80001694:	74e2                	ld	s1,56(sp)
    80001696:	7942                	ld	s2,48(sp)
    80001698:	79a2                	ld	s3,40(sp)
    8000169a:	7a02                	ld	s4,32(sp)
    8000169c:	6ae2                	ld	s5,24(sp)
    8000169e:	6b42                	ld	s6,16(sp)
    800016a0:	6ba2                	ld	s7,8(sp)
    800016a2:	6c02                	ld	s8,0(sp)
    800016a4:	6161                	add	sp,sp,80
    800016a6:	8082                	ret
  return 0;
    800016a8:	4501                	li	a0,0
}
    800016aa:	8082                	ret

00000000800016ac <proc_mapstacks>:
// Allocate a page for each process's kernel stack.
// Map it high in memory, followed by an invalid
// guard page.
void
proc_mapstacks(pagetable_t kpgtbl)
{
    800016ac:	7139                	add	sp,sp,-64
    800016ae:	fc06                	sd	ra,56(sp)
    800016b0:	f822                	sd	s0,48(sp)
    800016b2:	f426                	sd	s1,40(sp)
    800016b4:	f04a                	sd	s2,32(sp)
    800016b6:	ec4e                	sd	s3,24(sp)
    800016b8:	e852                	sd	s4,16(sp)
    800016ba:	e456                	sd	s5,8(sp)
    800016bc:	e05a                	sd	s6,0(sp)
    800016be:	0080                	add	s0,sp,64
    800016c0:	89aa                	mv	s3,a0
  struct proc *p;
  
  for(p = proc; p < &proc[NPROC]; p++) {
    800016c2:	0000e497          	auipc	s1,0xe
    800016c6:	6e648493          	add	s1,s1,1766 # 8000fda8 <proc>
    char *pa = kalloc();
    if(pa == 0)
      panic("kalloc");
    uint64 va = KSTACK((int) (p - proc));
    800016ca:	8b26                	mv	s6,s1
    800016cc:	00006a97          	auipc	s5,0x6
    800016d0:	934a8a93          	add	s5,s5,-1740 # 80007000 <etext>
    800016d4:	04000937          	lui	s2,0x4000
    800016d8:	197d                	add	s2,s2,-1 # 3ffffff <_entry-0x7c000001>
    800016da:	0932                	sll	s2,s2,0xc
  for(p = proc; p < &proc[NPROC]; p++) {
    800016dc:	00014a17          	auipc	s4,0x14
    800016e0:	2cca0a13          	add	s4,s4,716 # 800159a8 <tickslock>
    char *pa = kalloc();
    800016e4:	bc0ff0ef          	jal	80000aa4 <kalloc>
    800016e8:	862a                	mv	a2,a0
    if(pa == 0)
    800016ea:	c121                	beqz	a0,8000172a <proc_mapstacks+0x7e>
    uint64 va = KSTACK((int) (p - proc));
    800016ec:	416485b3          	sub	a1,s1,s6
    800016f0:	8591                	sra	a1,a1,0x4
    800016f2:	000ab783          	ld	a5,0(s5)
    800016f6:	02f585b3          	mul	a1,a1,a5
    800016fa:	2585                	addw	a1,a1,1
    800016fc:	00d5959b          	sllw	a1,a1,0xd
    kvmmap(kpgtbl, va, (uint64)pa, PGSIZE, PTE_R | PTE_W);
    80001700:	4719                	li	a4,6
    80001702:	6685                	lui	a3,0x1
    80001704:	40b905b3          	sub	a1,s2,a1
    80001708:	854e                	mv	a0,s3
    8000170a:	941ff0ef          	jal	8000104a <kvmmap>
  for(p = proc; p < &proc[NPROC]; p++) {
    8000170e:	17048493          	add	s1,s1,368
    80001712:	fd4499e3          	bne	s1,s4,800016e4 <proc_mapstacks+0x38>
  }
}
    80001716:	70e2                	ld	ra,56(sp)
    80001718:	7442                	ld	s0,48(sp)
    8000171a:	74a2                	ld	s1,40(sp)
    8000171c:	7902                	ld	s2,32(sp)
    8000171e:	69e2                	ld	s3,24(sp)
    80001720:	6a42                	ld	s4,16(sp)
    80001722:	6aa2                	ld	s5,8(sp)
    80001724:	6b02                	ld	s6,0(sp)
    80001726:	6121                	add	sp,sp,64
    80001728:	8082                	ret
      panic("kalloc");
    8000172a:	00006517          	auipc	a0,0x6
    8000172e:	a4650513          	add	a0,a0,-1466 # 80007170 <digits+0x138>
    80001732:	86cff0ef          	jal	8000079e <panic>

0000000080001736 <procinit>:

// initialize the proc table.
void
procinit(void)
{
    80001736:	7139                	add	sp,sp,-64
    80001738:	fc06                	sd	ra,56(sp)
    8000173a:	f822                	sd	s0,48(sp)
    8000173c:	f426                	sd	s1,40(sp)
    8000173e:	f04a                	sd	s2,32(sp)
    80001740:	ec4e                	sd	s3,24(sp)
    80001742:	e852                	sd	s4,16(sp)
    80001744:	e456                	sd	s5,8(sp)
    80001746:	e05a                	sd	s6,0(sp)
    80001748:	0080                	add	s0,sp,64
  struct proc *p;
  
  initlock(&pid_lock, "nextpid");
    8000174a:	00006597          	auipc	a1,0x6
    8000174e:	a2e58593          	add	a1,a1,-1490 # 80007178 <digits+0x140>
    80001752:	0000e517          	auipc	a0,0xe
    80001756:	22650513          	add	a0,a0,550 # 8000f978 <pid_lock>
    8000175a:	b9aff0ef          	jal	80000af4 <initlock>
  initlock(&wait_lock, "wait_lock");
    8000175e:	00006597          	auipc	a1,0x6
    80001762:	a2258593          	add	a1,a1,-1502 # 80007180 <digits+0x148>
    80001766:	0000e517          	auipc	a0,0xe
    8000176a:	22a50513          	add	a0,a0,554 # 8000f990 <wait_lock>
    8000176e:	b86ff0ef          	jal	80000af4 <initlock>
  for(p = proc; p < &proc[NPROC]; p++) {
    80001772:	0000e497          	auipc	s1,0xe
    80001776:	63648493          	add	s1,s1,1590 # 8000fda8 <proc>
      initlock(&p->lock, "proc");
    8000177a:	00006b17          	auipc	s6,0x6
    8000177e:	a16b0b13          	add	s6,s6,-1514 # 80007190 <digits+0x158>
      p->state = UNUSED;
      p->kstack = KSTACK((int) (p - proc));
    80001782:	8aa6                	mv	s5,s1
    80001784:	00006a17          	auipc	s4,0x6
    80001788:	87ca0a13          	add	s4,s4,-1924 # 80007000 <etext>
    8000178c:	04000937          	lui	s2,0x4000
    80001790:	197d                	add	s2,s2,-1 # 3ffffff <_entry-0x7c000001>
    80001792:	0932                	sll	s2,s2,0xc
  for(p = proc; p < &proc[NPROC]; p++) {
    80001794:	00014997          	auipc	s3,0x14
    80001798:	21498993          	add	s3,s3,532 # 800159a8 <tickslock>
      initlock(&p->lock, "proc");
    8000179c:	85da                	mv	a1,s6
    8000179e:	8526                	mv	a0,s1
    800017a0:	b54ff0ef          	jal	80000af4 <initlock>
      p->state = UNUSED;
    800017a4:	0004ac23          	sw	zero,24(s1)
      p->kstack = KSTACK((int) (p - proc));
    800017a8:	415487b3          	sub	a5,s1,s5
    800017ac:	8791                	sra	a5,a5,0x4
    800017ae:	000a3703          	ld	a4,0(s4)
    800017b2:	02e787b3          	mul	a5,a5,a4
    800017b6:	2785                	addw	a5,a5,1 # fffffffffffff001 <end+0xffffffff7ffde211>
    800017b8:	00d7979b          	sllw	a5,a5,0xd
    800017bc:	40f907b3          	sub	a5,s2,a5
    800017c0:	e0bc                	sd	a5,64(s1)
  for(p = proc; p < &proc[NPROC]; p++) {
    800017c2:	17048493          	add	s1,s1,368
    800017c6:	fd349be3          	bne	s1,s3,8000179c <procinit+0x66>
  }
}
    800017ca:	70e2                	ld	ra,56(sp)
    800017cc:	7442                	ld	s0,48(sp)
    800017ce:	74a2                	ld	s1,40(sp)
    800017d0:	7902                	ld	s2,32(sp)
    800017d2:	69e2                	ld	s3,24(sp)
    800017d4:	6a42                	ld	s4,16(sp)
    800017d6:	6aa2                	ld	s5,8(sp)
    800017d8:	6b02                	ld	s6,0(sp)
    800017da:	6121                	add	sp,sp,64
    800017dc:	8082                	ret

00000000800017de <cpuid>:
// Must be called with interrupts disabled,
// to prevent race with process being moved
// to a different CPU.
int
cpuid()
{
    800017de:	1141                	add	sp,sp,-16
    800017e0:	e422                	sd	s0,8(sp)
    800017e2:	0800                	add	s0,sp,16
  asm volatile("mv %0, tp" : "=r" (x) );
    800017e4:	8512                	mv	a0,tp
  int id = r_tp();
  return id;
}
    800017e6:	2501                	sext.w	a0,a0
    800017e8:	6422                	ld	s0,8(sp)
    800017ea:	0141                	add	sp,sp,16
    800017ec:	8082                	ret

00000000800017ee <mycpu>:

// Return this CPU's cpu struct.
// Interrupts must be disabled.
struct cpu*
mycpu(void)
{
    800017ee:	1141                	add	sp,sp,-16
    800017f0:	e422                	sd	s0,8(sp)
    800017f2:	0800                	add	s0,sp,16
    800017f4:	8792                	mv	a5,tp
  int id = cpuid();
  struct cpu *c = &cpus[id];
    800017f6:	2781                	sext.w	a5,a5
    800017f8:	079e                	sll	a5,a5,0x7
  return c;
}
    800017fa:	0000e517          	auipc	a0,0xe
    800017fe:	1ae50513          	add	a0,a0,430 # 8000f9a8 <cpus>
    80001802:	953e                	add	a0,a0,a5
    80001804:	6422                	ld	s0,8(sp)
    80001806:	0141                	add	sp,sp,16
    80001808:	8082                	ret

000000008000180a <myproc>:

// Return the current struct proc *, or zero if none.
struct proc*
myproc(void)
{
    8000180a:	1101                	add	sp,sp,-32
    8000180c:	ec06                	sd	ra,24(sp)
    8000180e:	e822                	sd	s0,16(sp)
    80001810:	e426                	sd	s1,8(sp)
    80001812:	1000                	add	s0,sp,32
  push_off();
    80001814:	b20ff0ef          	jal	80000b34 <push_off>
    80001818:	8792                	mv	a5,tp
  struct cpu *c = mycpu();
  struct proc *p = c->proc;
    8000181a:	2781                	sext.w	a5,a5
    8000181c:	079e                	sll	a5,a5,0x7
    8000181e:	0000e717          	auipc	a4,0xe
    80001822:	15a70713          	add	a4,a4,346 # 8000f978 <pid_lock>
    80001826:	97ba                	add	a5,a5,a4
    80001828:	7b84                	ld	s1,48(a5)
  pop_off();
    8000182a:	b8eff0ef          	jal	80000bb8 <pop_off>
  return p;
}
    8000182e:	8526                	mv	a0,s1
    80001830:	60e2                	ld	ra,24(sp)
    80001832:	6442                	ld	s0,16(sp)
    80001834:	64a2                	ld	s1,8(sp)
    80001836:	6105                	add	sp,sp,32
    80001838:	8082                	ret

000000008000183a <forkret>:

// A fork child's very first scheduling by scheduler()
// will swtch to forkret.
void
forkret(void)
{
    8000183a:	7179                	add	sp,sp,-48
    8000183c:	f406                	sd	ra,40(sp)
    8000183e:	f022                	sd	s0,32(sp)
    80001840:	ec26                	sd	s1,24(sp)
    80001842:	1800                	add	s0,sp,48
  extern char userret[];
  static int first = 1;
  struct proc *p = myproc();
    80001844:	fc7ff0ef          	jal	8000180a <myproc>
    80001848:	84aa                	mv	s1,a0

  // Still holding p->lock from scheduler.
  release(&p->lock);
    8000184a:	bc2ff0ef          	jal	80000c0c <release>

  if (first) {
    8000184e:	00006797          	auipc	a5,0x6
    80001852:	ff27a783          	lw	a5,-14(a5) # 80007840 <first.1>
    80001856:	cf8d                	beqz	a5,80001890 <forkret+0x56>
    // File system initialization must be run in the context of a
    // regular process (e.g., because it calls sleep), and thus cannot
    // be run from main().
    fsinit(ROOTDEV);
    80001858:	4505                	li	a0,1
    8000185a:	575010ef          	jal	800035ce <fsinit>

    first = 0;
    8000185e:	00006797          	auipc	a5,0x6
    80001862:	fe07a123          	sw	zero,-30(a5) # 80007840 <first.1>
    // ensure other cores see first=0.
    __sync_synchronize();
    80001866:	0ff0000f          	fence

    // We can invoke kexec() now that file system is initialized.
    // Put the return value (argc) of kexec into a0.
    p->trapframe->a0 = kexec("/init", (char *[]){ "/init", 0 });
    8000186a:	00006517          	auipc	a0,0x6
    8000186e:	92e50513          	add	a0,a0,-1746 # 80007198 <digits+0x160>
    80001872:	fca43823          	sd	a0,-48(s0)
    80001876:	fc043c23          	sd	zero,-40(s0)
    8000187a:	fd040593          	add	a1,s0,-48
    8000187e:	5d1020ef          	jal	8000464e <kexec>
    80001882:	6cbc                	ld	a5,88(s1)
    80001884:	fba8                	sd	a0,112(a5)
    if (p->trapframe->a0 == -1) {
    80001886:	6cbc                	ld	a5,88(s1)
    80001888:	7bb8                	ld	a4,112(a5)
    8000188a:	57fd                	li	a5,-1
    8000188c:	02f70d63          	beq	a4,a5,800018c6 <forkret+0x8c>
      panic("exec");
    }
  }

  // return to user space, mimicing usertrap()'s return.
  prepare_return();
    80001890:	3ef000ef          	jal	8000247e <prepare_return>
  uint64 satp = MAKE_SATP(p->pagetable);
    80001894:	68a8                	ld	a0,80(s1)
    80001896:	8131                	srl	a0,a0,0xc
  uint64 trampoline_userret = TRAMPOLINE + (userret - trampoline);
    80001898:	04000737          	lui	a4,0x4000
    8000189c:	00005797          	auipc	a5,0x5
    800018a0:	80078793          	add	a5,a5,-2048 # 8000609c <userret>
    800018a4:	00004697          	auipc	a3,0x4
    800018a8:	75c68693          	add	a3,a3,1884 # 80006000 <_trampoline>
    800018ac:	8f95                	sub	a5,a5,a3
    800018ae:	177d                	add	a4,a4,-1 # 3ffffff <_entry-0x7c000001>
    800018b0:	0732                	sll	a4,a4,0xc
    800018b2:	97ba                	add	a5,a5,a4
  ((void (*)(uint64))trampoline_userret)(satp);
    800018b4:	577d                	li	a4,-1
    800018b6:	177e                	sll	a4,a4,0x3f
    800018b8:	8d59                	or	a0,a0,a4
    800018ba:	9782                	jalr	a5
}
    800018bc:	70a2                	ld	ra,40(sp)
    800018be:	7402                	ld	s0,32(sp)
    800018c0:	64e2                	ld	s1,24(sp)
    800018c2:	6145                	add	sp,sp,48
    800018c4:	8082                	ret
      panic("exec");
    800018c6:	00006517          	auipc	a0,0x6
    800018ca:	8da50513          	add	a0,a0,-1830 # 800071a0 <digits+0x168>
    800018ce:	ed1fe0ef          	jal	8000079e <panic>

00000000800018d2 <allocpid>:
{
    800018d2:	1101                	add	sp,sp,-32
    800018d4:	ec06                	sd	ra,24(sp)
    800018d6:	e822                	sd	s0,16(sp)
    800018d8:	e426                	sd	s1,8(sp)
    800018da:	e04a                	sd	s2,0(sp)
    800018dc:	1000                	add	s0,sp,32
  acquire(&pid_lock);
    800018de:	0000e917          	auipc	s2,0xe
    800018e2:	09a90913          	add	s2,s2,154 # 8000f978 <pid_lock>
    800018e6:	854a                	mv	a0,s2
    800018e8:	a8cff0ef          	jal	80000b74 <acquire>
  pid = nextpid;
    800018ec:	00006797          	auipc	a5,0x6
    800018f0:	f5c78793          	add	a5,a5,-164 # 80007848 <nextpid>
    800018f4:	4384                	lw	s1,0(a5)
  nextpid = nextpid + 1;
    800018f6:	0014871b          	addw	a4,s1,1
    800018fa:	c398                	sw	a4,0(a5)
  release(&pid_lock);
    800018fc:	854a                	mv	a0,s2
    800018fe:	b0eff0ef          	jal	80000c0c <release>
}
    80001902:	8526                	mv	a0,s1
    80001904:	60e2                	ld	ra,24(sp)
    80001906:	6442                	ld	s0,16(sp)
    80001908:	64a2                	ld	s1,8(sp)
    8000190a:	6902                	ld	s2,0(sp)
    8000190c:	6105                	add	sp,sp,32
    8000190e:	8082                	ret

0000000080001910 <proc_pagetable>:
{
    80001910:	1101                	add	sp,sp,-32
    80001912:	ec06                	sd	ra,24(sp)
    80001914:	e822                	sd	s0,16(sp)
    80001916:	e426                	sd	s1,8(sp)
    80001918:	e04a                	sd	s2,0(sp)
    8000191a:	1000                	add	s0,sp,32
    8000191c:	892a                	mv	s2,a0
  pagetable = uvmcreate();
    8000191e:	823ff0ef          	jal	80001140 <uvmcreate>
    80001922:	84aa                	mv	s1,a0
  if(pagetable == 0)
    80001924:	cd05                	beqz	a0,8000195c <proc_pagetable+0x4c>
  if(mappages(pagetable, TRAMPOLINE, PGSIZE,
    80001926:	4729                	li	a4,10
    80001928:	00004697          	auipc	a3,0x4
    8000192c:	6d868693          	add	a3,a3,1752 # 80006000 <_trampoline>
    80001930:	6605                	lui	a2,0x1
    80001932:	040005b7          	lui	a1,0x4000
    80001936:	15fd                	add	a1,a1,-1 # 3ffffff <_entry-0x7c000001>
    80001938:	05b2                	sll	a1,a1,0xc
    8000193a:	e60ff0ef          	jal	80000f9a <mappages>
    8000193e:	02054663          	bltz	a0,8000196a <proc_pagetable+0x5a>
  if(mappages(pagetable, TRAPFRAME, PGSIZE,
    80001942:	4719                	li	a4,6
    80001944:	05893683          	ld	a3,88(s2)
    80001948:	6605                	lui	a2,0x1
    8000194a:	020005b7          	lui	a1,0x2000
    8000194e:	15fd                	add	a1,a1,-1 # 1ffffff <_entry-0x7e000001>
    80001950:	05b6                	sll	a1,a1,0xd
    80001952:	8526                	mv	a0,s1
    80001954:	e46ff0ef          	jal	80000f9a <mappages>
    80001958:	00054f63          	bltz	a0,80001976 <proc_pagetable+0x66>
}
    8000195c:	8526                	mv	a0,s1
    8000195e:	60e2                	ld	ra,24(sp)
    80001960:	6442                	ld	s0,16(sp)
    80001962:	64a2                	ld	s1,8(sp)
    80001964:	6902                	ld	s2,0(sp)
    80001966:	6105                	add	sp,sp,32
    80001968:	8082                	ret
    uvmfree(pagetable, 0);
    8000196a:	4581                	li	a1,0
    8000196c:	8526                	mv	a0,s1
    8000196e:	9b3ff0ef          	jal	80001320 <uvmfree>
    return 0;
    80001972:	4481                	li	s1,0
    80001974:	b7e5                	j	8000195c <proc_pagetable+0x4c>
    uvmunmap(pagetable, TRAMPOLINE, 1, 0);
    80001976:	4681                	li	a3,0
    80001978:	4605                	li	a2,1
    8000197a:	040005b7          	lui	a1,0x4000
    8000197e:	15fd                	add	a1,a1,-1 # 3ffffff <_entry-0x7c000001>
    80001980:	05b2                	sll	a1,a1,0xc
    80001982:	8526                	mv	a0,s1
    80001984:	fe2ff0ef          	jal	80001166 <uvmunmap>
    uvmfree(pagetable, 0);
    80001988:	4581                	li	a1,0
    8000198a:	8526                	mv	a0,s1
    8000198c:	995ff0ef          	jal	80001320 <uvmfree>
    return 0;
    80001990:	4481                	li	s1,0
    80001992:	b7e9                	j	8000195c <proc_pagetable+0x4c>

0000000080001994 <proc_freepagetable>:
{
    80001994:	1101                	add	sp,sp,-32
    80001996:	ec06                	sd	ra,24(sp)
    80001998:	e822                	sd	s0,16(sp)
    8000199a:	e426                	sd	s1,8(sp)
    8000199c:	e04a                	sd	s2,0(sp)
    8000199e:	1000                	add	s0,sp,32
    800019a0:	84aa                	mv	s1,a0
    800019a2:	892e                	mv	s2,a1
  uvmunmap(pagetable, TRAMPOLINE, 1, 0);
    800019a4:	4681                	li	a3,0
    800019a6:	4605                	li	a2,1
    800019a8:	040005b7          	lui	a1,0x4000
    800019ac:	15fd                	add	a1,a1,-1 # 3ffffff <_entry-0x7c000001>
    800019ae:	05b2                	sll	a1,a1,0xc
    800019b0:	fb6ff0ef          	jal	80001166 <uvmunmap>
  uvmunmap(pagetable, TRAPFRAME, 1, 0);
    800019b4:	4681                	li	a3,0
    800019b6:	4605                	li	a2,1
    800019b8:	020005b7          	lui	a1,0x2000
    800019bc:	15fd                	add	a1,a1,-1 # 1ffffff <_entry-0x7e000001>
    800019be:	05b6                	sll	a1,a1,0xd
    800019c0:	8526                	mv	a0,s1
    800019c2:	fa4ff0ef          	jal	80001166 <uvmunmap>
  uvmfree(pagetable, sz);
    800019c6:	85ca                	mv	a1,s2
    800019c8:	8526                	mv	a0,s1
    800019ca:	957ff0ef          	jal	80001320 <uvmfree>
}
    800019ce:	60e2                	ld	ra,24(sp)
    800019d0:	6442                	ld	s0,16(sp)
    800019d2:	64a2                	ld	s1,8(sp)
    800019d4:	6902                	ld	s2,0(sp)
    800019d6:	6105                	add	sp,sp,32
    800019d8:	8082                	ret

00000000800019da <freeproc>:
{
    800019da:	1101                	add	sp,sp,-32
    800019dc:	ec06                	sd	ra,24(sp)
    800019de:	e822                	sd	s0,16(sp)
    800019e0:	e426                	sd	s1,8(sp)
    800019e2:	1000                	add	s0,sp,32
    800019e4:	84aa                	mv	s1,a0
  if(p->trapframe)
    800019e6:	6d28                	ld	a0,88(a0)
    800019e8:	c119                	beqz	a0,800019ee <freeproc+0x14>
    kfree((void*)p->trapframe);
    800019ea:	fd9fe0ef          	jal	800009c2 <kfree>
  p->trapframe = 0;
    800019ee:	0404bc23          	sd	zero,88(s1)
  if(p->pagetable)
    800019f2:	68a8                	ld	a0,80(s1)
    800019f4:	c501                	beqz	a0,800019fc <freeproc+0x22>
    proc_freepagetable(p->pagetable, p->sz);
    800019f6:	64ac                	ld	a1,72(s1)
    800019f8:	f9dff0ef          	jal	80001994 <proc_freepagetable>
  p->pagetable = 0;
    800019fc:	0404b823          	sd	zero,80(s1)
  p->sz = 0;
    80001a00:	0404b423          	sd	zero,72(s1)
  p->pid = 0;
    80001a04:	0204a823          	sw	zero,48(s1)
  p->parent = 0;
    80001a08:	0204bc23          	sd	zero,56(s1)
  p->name[0] = 0;
    80001a0c:	14048c23          	sb	zero,344(s1)
  p->chan = 0;
    80001a10:	0204b023          	sd	zero,32(s1)
  p->killed = 0;
    80001a14:	0204a423          	sw	zero,40(s1)
  p->xstate = 0;
    80001a18:	0204a623          	sw	zero,44(s1)
  p->state = UNUSED;
    80001a1c:	0004ac23          	sw	zero,24(s1)
}
    80001a20:	60e2                	ld	ra,24(sp)
    80001a22:	6442                	ld	s0,16(sp)
    80001a24:	64a2                	ld	s1,8(sp)
    80001a26:	6105                	add	sp,sp,32
    80001a28:	8082                	ret

0000000080001a2a <allocproc>:
{
    80001a2a:	1101                	add	sp,sp,-32
    80001a2c:	ec06                	sd	ra,24(sp)
    80001a2e:	e822                	sd	s0,16(sp)
    80001a30:	e426                	sd	s1,8(sp)
    80001a32:	e04a                	sd	s2,0(sp)
    80001a34:	1000                	add	s0,sp,32
  for(p = proc; p < &proc[NPROC]; p++) {
    80001a36:	0000e497          	auipc	s1,0xe
    80001a3a:	37248493          	add	s1,s1,882 # 8000fda8 <proc>
    80001a3e:	00014917          	auipc	s2,0x14
    80001a42:	f6a90913          	add	s2,s2,-150 # 800159a8 <tickslock>
    acquire(&p->lock);
    80001a46:	8526                	mv	a0,s1
    80001a48:	92cff0ef          	jal	80000b74 <acquire>
    if(p->state == UNUSED) {
    80001a4c:	4c9c                	lw	a5,24(s1)
    80001a4e:	cb91                	beqz	a5,80001a62 <allocproc+0x38>
      release(&p->lock);
    80001a50:	8526                	mv	a0,s1
    80001a52:	9baff0ef          	jal	80000c0c <release>
  for(p = proc; p < &proc[NPROC]; p++) {
    80001a56:	17048493          	add	s1,s1,368
    80001a5a:	ff2496e3          	bne	s1,s2,80001a46 <allocproc+0x1c>
  return 0;
    80001a5e:	4481                	li	s1,0
    80001a60:	a0b1                	j	80001aac <allocproc+0x82>
  p->pid = allocpid();
    80001a62:	e71ff0ef          	jal	800018d2 <allocpid>
    80001a66:	d888                	sw	a0,48(s1)
  p->state = USED;
    80001a68:	4785                	li	a5,1
    80001a6a:	cc9c                	sw	a5,24(s1)
  if((p->trapframe = (struct trapframe *)kalloc()) == 0){
    80001a6c:	838ff0ef          	jal	80000aa4 <kalloc>
    80001a70:	892a                	mv	s2,a0
    80001a72:	eca8                	sd	a0,88(s1)
    80001a74:	c139                	beqz	a0,80001aba <allocproc+0x90>
  p->pagetable = proc_pagetable(p);
    80001a76:	8526                	mv	a0,s1
    80001a78:	e99ff0ef          	jal	80001910 <proc_pagetable>
    80001a7c:	892a                	mv	s2,a0
    80001a7e:	e8a8                	sd	a0,80(s1)
  if(p->pagetable == 0){
    80001a80:	c529                	beqz	a0,80001aca <allocproc+0xa0>
  memset(&p->context, 0, sizeof(p->context));
    80001a82:	07000613          	li	a2,112
    80001a86:	4581                	li	a1,0
    80001a88:	06048513          	add	a0,s1,96
    80001a8c:	9bcff0ef          	jal	80000c48 <memset>
  p->context.ra = (uint64)forkret;
    80001a90:	00000797          	auipc	a5,0x0
    80001a94:	daa78793          	add	a5,a5,-598 # 8000183a <forkret>
    80001a98:	f0bc                	sd	a5,96(s1)
  p->context.sp = p->kstack + PGSIZE;
    80001a9a:	60bc                	ld	a5,64(s1)
    80001a9c:	6705                	lui	a4,0x1
    80001a9e:	97ba                	add	a5,a5,a4
    80001aa0:	f4bc                	sd	a5,104(s1)
  p->tickets = 1;
    80001aa2:	4785                	li	a5,1
    80001aa4:	16f4a423          	sw	a5,360(s1)
  p->ticks = 0;
    80001aa8:	1604a623          	sw	zero,364(s1)
}
    80001aac:	8526                	mv	a0,s1
    80001aae:	60e2                	ld	ra,24(sp)
    80001ab0:	6442                	ld	s0,16(sp)
    80001ab2:	64a2                	ld	s1,8(sp)
    80001ab4:	6902                	ld	s2,0(sp)
    80001ab6:	6105                	add	sp,sp,32
    80001ab8:	8082                	ret
    freeproc(p);
    80001aba:	8526                	mv	a0,s1
    80001abc:	f1fff0ef          	jal	800019da <freeproc>
    release(&p->lock);
    80001ac0:	8526                	mv	a0,s1
    80001ac2:	94aff0ef          	jal	80000c0c <release>
    return 0;
    80001ac6:	84ca                	mv	s1,s2
    80001ac8:	b7d5                	j	80001aac <allocproc+0x82>
    freeproc(p);
    80001aca:	8526                	mv	a0,s1
    80001acc:	f0fff0ef          	jal	800019da <freeproc>
    release(&p->lock);
    80001ad0:	8526                	mv	a0,s1
    80001ad2:	93aff0ef          	jal	80000c0c <release>
    return 0;
    80001ad6:	84ca                	mv	s1,s2
    80001ad8:	bfd1                	j	80001aac <allocproc+0x82>

0000000080001ada <userinit>:
{
    80001ada:	1101                	add	sp,sp,-32
    80001adc:	ec06                	sd	ra,24(sp)
    80001ade:	e822                	sd	s0,16(sp)
    80001ae0:	e426                	sd	s1,8(sp)
    80001ae2:	1000                	add	s0,sp,32
  p = allocproc();
    80001ae4:	f47ff0ef          	jal	80001a2a <allocproc>
    80001ae8:	84aa                	mv	s1,a0
  initproc = p;
    80001aea:	00006797          	auipc	a5,0x6
    80001aee:	d8a7b323          	sd	a0,-634(a5) # 80007870 <initproc>
  p->cwd = namei("/");
    80001af2:	00005517          	auipc	a0,0x5
    80001af6:	6b650513          	add	a0,a0,1718 # 800071a8 <digits+0x170>
    80001afa:	7d3010ef          	jal	80003acc <namei>
    80001afe:	14a4b823          	sd	a0,336(s1)
  p->state = RUNNABLE;
    80001b02:	478d                	li	a5,3
    80001b04:	cc9c                	sw	a5,24(s1)
  release(&p->lock);
    80001b06:	8526                	mv	a0,s1
    80001b08:	904ff0ef          	jal	80000c0c <release>
}
    80001b0c:	60e2                	ld	ra,24(sp)
    80001b0e:	6442                	ld	s0,16(sp)
    80001b10:	64a2                	ld	s1,8(sp)
    80001b12:	6105                	add	sp,sp,32
    80001b14:	8082                	ret

0000000080001b16 <growproc>:
{
    80001b16:	1101                	add	sp,sp,-32
    80001b18:	ec06                	sd	ra,24(sp)
    80001b1a:	e822                	sd	s0,16(sp)
    80001b1c:	e426                	sd	s1,8(sp)
    80001b1e:	e04a                	sd	s2,0(sp)
    80001b20:	1000                	add	s0,sp,32
    80001b22:	84aa                	mv	s1,a0
  struct proc *p = myproc();
    80001b24:	ce7ff0ef          	jal	8000180a <myproc>
    80001b28:	892a                	mv	s2,a0
  sz = p->sz;
    80001b2a:	652c                	ld	a1,72(a0)
  if(n > 0){
    80001b2c:	02905963          	blez	s1,80001b5e <growproc+0x48>
    if(sz + n > TRAPFRAME) {
    80001b30:	00b48633          	add	a2,s1,a1
    80001b34:	020007b7          	lui	a5,0x2000
    80001b38:	17fd                	add	a5,a5,-1 # 1ffffff <_entry-0x7e000001>
    80001b3a:	07b6                	sll	a5,a5,0xd
    80001b3c:	02c7ea63          	bltu	a5,a2,80001b70 <growproc+0x5a>
    if((sz = uvmalloc(p->pagetable, sz, sz + n, PTE_W)) == 0) {
    80001b40:	4691                	li	a3,4
    80001b42:	6928                	ld	a0,80(a0)
    80001b44:	ee2ff0ef          	jal	80001226 <uvmalloc>
    80001b48:	85aa                	mv	a1,a0
    80001b4a:	c50d                	beqz	a0,80001b74 <growproc+0x5e>
  p->sz = sz;
    80001b4c:	04b93423          	sd	a1,72(s2)
  return 0;
    80001b50:	4501                	li	a0,0
}
    80001b52:	60e2                	ld	ra,24(sp)
    80001b54:	6442                	ld	s0,16(sp)
    80001b56:	64a2                	ld	s1,8(sp)
    80001b58:	6902                	ld	s2,0(sp)
    80001b5a:	6105                	add	sp,sp,32
    80001b5c:	8082                	ret
  } else if(n < 0){
    80001b5e:	fe04d7e3          	bgez	s1,80001b4c <growproc+0x36>
    sz = uvmdealloc(p->pagetable, sz, sz + n);
    80001b62:	00b48633          	add	a2,s1,a1
    80001b66:	6928                	ld	a0,80(a0)
    80001b68:	e7aff0ef          	jal	800011e2 <uvmdealloc>
    80001b6c:	85aa                	mv	a1,a0
    80001b6e:	bff9                	j	80001b4c <growproc+0x36>
      return -1;
    80001b70:	557d                	li	a0,-1
    80001b72:	b7c5                	j	80001b52 <growproc+0x3c>
      return -1;
    80001b74:	557d                	li	a0,-1
    80001b76:	bff1                	j	80001b52 <growproc+0x3c>

0000000080001b78 <kfork>:
{
    80001b78:	7139                	add	sp,sp,-64
    80001b7a:	fc06                	sd	ra,56(sp)
    80001b7c:	f822                	sd	s0,48(sp)
    80001b7e:	f426                	sd	s1,40(sp)
    80001b80:	f04a                	sd	s2,32(sp)
    80001b82:	ec4e                	sd	s3,24(sp)
    80001b84:	e852                	sd	s4,16(sp)
    80001b86:	e456                	sd	s5,8(sp)
    80001b88:	0080                	add	s0,sp,64
  struct proc *p = myproc();
    80001b8a:	c81ff0ef          	jal	8000180a <myproc>
    80001b8e:	8aaa                	mv	s5,a0
  if((np = allocproc()) == 0){
    80001b90:	e9bff0ef          	jal	80001a2a <allocproc>
    80001b94:	0e050a63          	beqz	a0,80001c88 <kfork+0x110>
    80001b98:	89aa                	mv	s3,a0
  if(uvmcopy(p->pagetable, np->pagetable, p->sz) < 0){
    80001b9a:	048ab603          	ld	a2,72(s5)
    80001b9e:	692c                	ld	a1,80(a0)
    80001ba0:	050ab503          	ld	a0,80(s5)
    80001ba4:	faeff0ef          	jal	80001352 <uvmcopy>
    80001ba8:	04054863          	bltz	a0,80001bf8 <kfork+0x80>
  np->sz = p->sz;
    80001bac:	048ab783          	ld	a5,72(s5)
    80001bb0:	04f9b423          	sd	a5,72(s3)
  *(np->trapframe) = *(p->trapframe);
    80001bb4:	058ab683          	ld	a3,88(s5)
    80001bb8:	87b6                	mv	a5,a3
    80001bba:	0589b703          	ld	a4,88(s3)
    80001bbe:	12068693          	add	a3,a3,288
    80001bc2:	0007b803          	ld	a6,0(a5)
    80001bc6:	6788                	ld	a0,8(a5)
    80001bc8:	6b8c                	ld	a1,16(a5)
    80001bca:	6f90                	ld	a2,24(a5)
    80001bcc:	01073023          	sd	a6,0(a4) # 1000 <_entry-0x7ffff000>
    80001bd0:	e708                	sd	a0,8(a4)
    80001bd2:	eb0c                	sd	a1,16(a4)
    80001bd4:	ef10                	sd	a2,24(a4)
    80001bd6:	02078793          	add	a5,a5,32
    80001bda:	02070713          	add	a4,a4,32
    80001bde:	fed792e3          	bne	a5,a3,80001bc2 <kfork+0x4a>
  np->trapframe->a0 = 0;
    80001be2:	0589b783          	ld	a5,88(s3)
    80001be6:	0607b823          	sd	zero,112(a5)
  for(i = 0; i < NOFILE; i++)
    80001bea:	0d0a8493          	add	s1,s5,208
    80001bee:	0d098913          	add	s2,s3,208
    80001bf2:	150a8a13          	add	s4,s5,336
    80001bf6:	a829                	j	80001c10 <kfork+0x98>
    freeproc(np);
    80001bf8:	854e                	mv	a0,s3
    80001bfa:	de1ff0ef          	jal	800019da <freeproc>
    release(&np->lock);
    80001bfe:	854e                	mv	a0,s3
    80001c00:	80cff0ef          	jal	80000c0c <release>
    return -1;
    80001c04:	597d                	li	s2,-1
    80001c06:	a0bd                	j	80001c74 <kfork+0xfc>
  for(i = 0; i < NOFILE; i++)
    80001c08:	04a1                	add	s1,s1,8
    80001c0a:	0921                	add	s2,s2,8
    80001c0c:	01448963          	beq	s1,s4,80001c1e <kfork+0xa6>
    if(p->ofile[i])
    80001c10:	6088                	ld	a0,0(s1)
    80001c12:	d97d                	beqz	a0,80001c08 <kfork+0x90>
      np->ofile[i] = filedup(p->ofile[i]);
    80001c14:	44c020ef          	jal	80004060 <filedup>
    80001c18:	00a93023          	sd	a0,0(s2)
    80001c1c:	b7f5                	j	80001c08 <kfork+0x90>
  np->cwd = idup(p->cwd);
    80001c1e:	150ab503          	ld	a0,336(s5)
    80001c22:	686010ef          	jal	800032a8 <idup>
    80001c26:	14a9b823          	sd	a0,336(s3)
  safestrcpy(np->name, p->name, sizeof(p->name));
    80001c2a:	4641                	li	a2,16
    80001c2c:	158a8593          	add	a1,s5,344
    80001c30:	15898513          	add	a0,s3,344
    80001c34:	958ff0ef          	jal	80000d8c <safestrcpy>
  np->tickets = p->tickets;
    80001c38:	168aa783          	lw	a5,360(s5)
    80001c3c:	16f9a423          	sw	a5,360(s3)
  pid = np->pid;
    80001c40:	0309a903          	lw	s2,48(s3)
  release(&np->lock);
    80001c44:	854e                	mv	a0,s3
    80001c46:	fc7fe0ef          	jal	80000c0c <release>
  acquire(&wait_lock);
    80001c4a:	0000e497          	auipc	s1,0xe
    80001c4e:	d4648493          	add	s1,s1,-698 # 8000f990 <wait_lock>
    80001c52:	8526                	mv	a0,s1
    80001c54:	f21fe0ef          	jal	80000b74 <acquire>
  np->parent = p;
    80001c58:	0359bc23          	sd	s5,56(s3)
  release(&wait_lock);
    80001c5c:	8526                	mv	a0,s1
    80001c5e:	faffe0ef          	jal	80000c0c <release>
  acquire(&np->lock);
    80001c62:	854e                	mv	a0,s3
    80001c64:	f11fe0ef          	jal	80000b74 <acquire>
  np->state = RUNNABLE;
    80001c68:	478d                	li	a5,3
    80001c6a:	00f9ac23          	sw	a5,24(s3)
  release(&np->lock);
    80001c6e:	854e                	mv	a0,s3
    80001c70:	f9dfe0ef          	jal	80000c0c <release>
}
    80001c74:	854a                	mv	a0,s2
    80001c76:	70e2                	ld	ra,56(sp)
    80001c78:	7442                	ld	s0,48(sp)
    80001c7a:	74a2                	ld	s1,40(sp)
    80001c7c:	7902                	ld	s2,32(sp)
    80001c7e:	69e2                	ld	s3,24(sp)
    80001c80:	6a42                	ld	s4,16(sp)
    80001c82:	6aa2                	ld	s5,8(sp)
    80001c84:	6121                	add	sp,sp,64
    80001c86:	8082                	ret
    return -1;
    80001c88:	597d                	li	s2,-1
    80001c8a:	b7ed                	j	80001c74 <kfork+0xfc>

0000000080001c8c <scheduler>:
{
    80001c8c:	711d                	add	sp,sp,-96
    80001c8e:	ec86                	sd	ra,88(sp)
    80001c90:	e8a2                	sd	s0,80(sp)
    80001c92:	e4a6                	sd	s1,72(sp)
    80001c94:	e0ca                	sd	s2,64(sp)
    80001c96:	fc4e                	sd	s3,56(sp)
    80001c98:	f852                	sd	s4,48(sp)
    80001c9a:	f456                	sd	s5,40(sp)
    80001c9c:	f05a                	sd	s6,32(sp)
    80001c9e:	ec5e                	sd	s7,24(sp)
    80001ca0:	e862                	sd	s8,16(sp)
    80001ca2:	e466                	sd	s9,8(sp)
    80001ca4:	1080                	add	s0,sp,96
    80001ca6:	8792                	mv	a5,tp
  int id = r_tp();
    80001ca8:	2781                	sext.w	a5,a5
  c->proc = 0;
    80001caa:	00779693          	sll	a3,a5,0x7
    80001cae:	0000e717          	auipc	a4,0xe
    80001cb2:	cca70713          	add	a4,a4,-822 # 8000f978 <pid_lock>
    80001cb6:	9736                	add	a4,a4,a3
    80001cb8:	02073823          	sd	zero,48(a4)
          swtch(&c->context, &p->context);
    80001cbc:	0000e717          	auipc	a4,0xe
    80001cc0:	cf470713          	add	a4,a4,-780 # 8000f9b0 <cpus+0x8>
    80001cc4:	00e68cb3          	add	s9,a3,a4
    for(p = proc; p < &proc[NPROC]; p++) {
    80001cc8:	00014917          	auipc	s2,0x14
    80001ccc:	ce090913          	add	s2,s2,-800 # 800159a8 <tickslock>
  rand_state = rand_state * 1664525 + 1013904223;
    80001cd0:	00196bb7          	lui	s7,0x196
    80001cd4:	60db8b9b          	addw	s7,s7,1549 # 19660d <_entry-0x7fe699f3>
    80001cd8:	3c6efb37          	lui	s6,0x3c6ef
    80001cdc:	35fb0b1b          	addw	s6,s6,863 # 3c6ef35f <_entry-0x43910ca1>
          c->proc = p;
    80001ce0:	0000ea97          	auipc	s5,0xe
    80001ce4:	c98a8a93          	add	s5,s5,-872 # 8000f978 <pid_lock>
    80001ce8:	9ab6                	add	s5,s5,a3
    80001cea:	a03d                	j	80001d18 <scheduler+0x8c>
      release(&p->lock);
    80001cec:	8526                	mv	a0,s1
    80001cee:	f1ffe0ef          	jal	80000c0c <release>
    for(p = proc; p < &proc[NPROC]; p++) {
    80001cf2:	17048493          	add	s1,s1,368
    80001cf6:	01248d63          	beq	s1,s2,80001d10 <scheduler+0x84>
      acquire(&p->lock);
    80001cfa:	8526                	mv	a0,s1
    80001cfc:	e79fe0ef          	jal	80000b74 <acquire>
      if(p->state == RUNNABLE)
    80001d00:	4c9c                	lw	a5,24(s1)
    80001d02:	ff3795e3          	bne	a5,s3,80001cec <scheduler+0x60>
        total += p->tickets;
    80001d06:	1684a783          	lw	a5,360(s1)
    80001d0a:	01478a3b          	addw	s4,a5,s4
    80001d0e:	bff9                	j	80001cec <scheduler+0x60>
    if(total == 0) {
    80001d10:	020a1663          	bnez	s4,80001d3c <scheduler+0xb0>
      asm volatile("wfi");
    80001d14:	10500073          	wfi
  asm volatile("csrr %0, sstatus" : "=r" (x) );
    80001d18:	100027f3          	csrr	a5,sstatus
  w_sstatus(r_sstatus() | SSTATUS_SIE);
    80001d1c:	0027e793          	or	a5,a5,2
  asm volatile("csrw sstatus, %0" : : "r" (x));
    80001d20:	10079073          	csrw	sstatus,a5
  asm volatile("csrr %0, sstatus" : "=r" (x) );
    80001d24:	100027f3          	csrr	a5,sstatus
  w_sstatus(r_sstatus() & ~SSTATUS_SIE);
    80001d28:	9bf5                	and	a5,a5,-3
  asm volatile("csrw sstatus, %0" : : "r" (x));
    80001d2a:	10079073          	csrw	sstatus,a5
    int total = 0;
    80001d2e:	4a01                	li	s4,0
    for(p = proc; p < &proc[NPROC]; p++) {
    80001d30:	0000e497          	auipc	s1,0xe
    80001d34:	07848493          	add	s1,s1,120 # 8000fda8 <proc>
      if(p->state == RUNNABLE)
    80001d38:	498d                	li	s3,3
    80001d3a:	b7c1                	j	80001cfa <scheduler+0x6e>
  rand_state = rand_state * 1664525 + 1013904223;
    80001d3c:	00006797          	auipc	a5,0x6
    80001d40:	b0878793          	add	a5,a5,-1272 # 80007844 <rand_state>
    80001d44:	0007ac03          	lw	s8,0(a5)
    80001d48:	038b8c3b          	mulw	s8,s7,s8
    80001d4c:	016c0c3b          	addw	s8,s8,s6
    80001d50:	0187a023          	sw	s8,0(a5)
    int winner = rand_next() % total;
    80001d54:	034c7c3b          	remuw	s8,s8,s4
    int counter = 0;
    80001d58:	4981                	li	s3,0
    for(p = proc; p < &proc[NPROC]; p++) {
    80001d5a:	0000e497          	auipc	s1,0xe
    80001d5e:	04e48493          	add	s1,s1,78 # 8000fda8 <proc>
      if(p->state == RUNNABLE) {
    80001d62:	4a0d                	li	s4,3
    80001d64:	a801                	j	80001d74 <scheduler+0xe8>
      release(&p->lock);
    80001d66:	8526                	mv	a0,s1
    80001d68:	ea5fe0ef          	jal	80000c0c <release>
    for(p = proc; p < &proc[NPROC]; p++) {
    80001d6c:	17048493          	add	s1,s1,368
    80001d70:	05248263          	beq	s1,s2,80001db4 <scheduler+0x128>
      acquire(&p->lock);
    80001d74:	8526                	mv	a0,s1
    80001d76:	dfffe0ef          	jal	80000b74 <acquire>
      if(p->state == RUNNABLE) {
    80001d7a:	4c9c                	lw	a5,24(s1)
    80001d7c:	ff4795e3          	bne	a5,s4,80001d66 <scheduler+0xda>
        counter += p->tickets;
    80001d80:	1684a783          	lw	a5,360(s1)
    80001d84:	013789bb          	addw	s3,a5,s3
        if(counter > winner) {
    80001d88:	fd3c5fe3          	bge	s8,s3,80001d66 <scheduler+0xda>
          p->state = RUNNING;
    80001d8c:	4791                	li	a5,4
    80001d8e:	cc9c                	sw	a5,24(s1)
          p->ticks++;
    80001d90:	16c4a783          	lw	a5,364(s1)
    80001d94:	2785                	addw	a5,a5,1
    80001d96:	16f4a623          	sw	a5,364(s1)
          c->proc = p;
    80001d9a:	029ab823          	sd	s1,48(s5)
          swtch(&c->context, &p->context);
    80001d9e:	06048593          	add	a1,s1,96
    80001da2:	8566                	mv	a0,s9
    80001da4:	634000ef          	jal	800023d8 <swtch>
          c->proc = 0;
    80001da8:	020ab823          	sd	zero,48(s5)
          release(&p->lock);
    80001dac:	8526                	mv	a0,s1
    80001dae:	e5ffe0ef          	jal	80000c0c <release>
    if(!found) {
    80001db2:	b79d                	j	80001d18 <scheduler+0x8c>
      asm volatile("wfi");
    80001db4:	10500073          	wfi
    80001db8:	b785                	j	80001d18 <scheduler+0x8c>

0000000080001dba <sched>:
{
    80001dba:	7179                	add	sp,sp,-48
    80001dbc:	f406                	sd	ra,40(sp)
    80001dbe:	f022                	sd	s0,32(sp)
    80001dc0:	ec26                	sd	s1,24(sp)
    80001dc2:	e84a                	sd	s2,16(sp)
    80001dc4:	e44e                	sd	s3,8(sp)
    80001dc6:	1800                	add	s0,sp,48
  struct proc *p = myproc();
    80001dc8:	a43ff0ef          	jal	8000180a <myproc>
    80001dcc:	84aa                	mv	s1,a0
  if(!holding(&p->lock))
    80001dce:	d3dfe0ef          	jal	80000b0a <holding>
    80001dd2:	c92d                	beqz	a0,80001e44 <sched+0x8a>
  asm volatile("mv %0, tp" : "=r" (x) );
    80001dd4:	8792                	mv	a5,tp
  if(mycpu()->noff != 1)
    80001dd6:	2781                	sext.w	a5,a5
    80001dd8:	079e                	sll	a5,a5,0x7
    80001dda:	0000e717          	auipc	a4,0xe
    80001dde:	b9e70713          	add	a4,a4,-1122 # 8000f978 <pid_lock>
    80001de2:	97ba                	add	a5,a5,a4
    80001de4:	0a87a703          	lw	a4,168(a5)
    80001de8:	4785                	li	a5,1
    80001dea:	06f71363          	bne	a4,a5,80001e50 <sched+0x96>
  if(p->state == RUNNING)
    80001dee:	4c98                	lw	a4,24(s1)
    80001df0:	4791                	li	a5,4
    80001df2:	06f70563          	beq	a4,a5,80001e5c <sched+0xa2>
  asm volatile("csrr %0, sstatus" : "=r" (x) );
    80001df6:	100027f3          	csrr	a5,sstatus
  return (x & SSTATUS_SIE) != 0;
    80001dfa:	8b89                	and	a5,a5,2
  if(intr_get())
    80001dfc:	e7b5                	bnez	a5,80001e68 <sched+0xae>
  asm volatile("mv %0, tp" : "=r" (x) );
    80001dfe:	8792                	mv	a5,tp
  intena = mycpu()->intena;
    80001e00:	0000e917          	auipc	s2,0xe
    80001e04:	b7890913          	add	s2,s2,-1160 # 8000f978 <pid_lock>
    80001e08:	2781                	sext.w	a5,a5
    80001e0a:	079e                	sll	a5,a5,0x7
    80001e0c:	97ca                	add	a5,a5,s2
    80001e0e:	0ac7a983          	lw	s3,172(a5)
    80001e12:	8792                	mv	a5,tp
  swtch(&p->context, &mycpu()->context);
    80001e14:	2781                	sext.w	a5,a5
    80001e16:	079e                	sll	a5,a5,0x7
    80001e18:	0000e597          	auipc	a1,0xe
    80001e1c:	b9858593          	add	a1,a1,-1128 # 8000f9b0 <cpus+0x8>
    80001e20:	95be                	add	a1,a1,a5
    80001e22:	06048513          	add	a0,s1,96
    80001e26:	5b2000ef          	jal	800023d8 <swtch>
    80001e2a:	8792                	mv	a5,tp
  mycpu()->intena = intena;
    80001e2c:	2781                	sext.w	a5,a5
    80001e2e:	079e                	sll	a5,a5,0x7
    80001e30:	993e                	add	s2,s2,a5
    80001e32:	0b392623          	sw	s3,172(s2)
}
    80001e36:	70a2                	ld	ra,40(sp)
    80001e38:	7402                	ld	s0,32(sp)
    80001e3a:	64e2                	ld	s1,24(sp)
    80001e3c:	6942                	ld	s2,16(sp)
    80001e3e:	69a2                	ld	s3,8(sp)
    80001e40:	6145                	add	sp,sp,48
    80001e42:	8082                	ret
    panic("sched p->lock");
    80001e44:	00005517          	auipc	a0,0x5
    80001e48:	36c50513          	add	a0,a0,876 # 800071b0 <digits+0x178>
    80001e4c:	953fe0ef          	jal	8000079e <panic>
    panic("sched locks");
    80001e50:	00005517          	auipc	a0,0x5
    80001e54:	37050513          	add	a0,a0,880 # 800071c0 <digits+0x188>
    80001e58:	947fe0ef          	jal	8000079e <panic>
    panic("sched RUNNING");
    80001e5c:	00005517          	auipc	a0,0x5
    80001e60:	37450513          	add	a0,a0,884 # 800071d0 <digits+0x198>
    80001e64:	93bfe0ef          	jal	8000079e <panic>
    panic("sched interruptible");
    80001e68:	00005517          	auipc	a0,0x5
    80001e6c:	37850513          	add	a0,a0,888 # 800071e0 <digits+0x1a8>
    80001e70:	92ffe0ef          	jal	8000079e <panic>

0000000080001e74 <yield>:
{
    80001e74:	1101                	add	sp,sp,-32
    80001e76:	ec06                	sd	ra,24(sp)
    80001e78:	e822                	sd	s0,16(sp)
    80001e7a:	e426                	sd	s1,8(sp)
    80001e7c:	1000                	add	s0,sp,32
  struct proc *p = myproc();
    80001e7e:	98dff0ef          	jal	8000180a <myproc>
    80001e82:	84aa                	mv	s1,a0
  acquire(&p->lock);
    80001e84:	cf1fe0ef          	jal	80000b74 <acquire>
  p->state = RUNNABLE;
    80001e88:	478d                	li	a5,3
    80001e8a:	cc9c                	sw	a5,24(s1)
  sched();
    80001e8c:	f2fff0ef          	jal	80001dba <sched>
  release(&p->lock);
    80001e90:	8526                	mv	a0,s1
    80001e92:	d7bfe0ef          	jal	80000c0c <release>
}
    80001e96:	60e2                	ld	ra,24(sp)
    80001e98:	6442                	ld	s0,16(sp)
    80001e9a:	64a2                	ld	s1,8(sp)
    80001e9c:	6105                	add	sp,sp,32
    80001e9e:	8082                	ret

0000000080001ea0 <sleep>:

// Sleep on channel chan, releasing condition lock lk.
// Re-acquires lk when awakened.
void
sleep(void *chan, struct spinlock *lk)
{
    80001ea0:	7179                	add	sp,sp,-48
    80001ea2:	f406                	sd	ra,40(sp)
    80001ea4:	f022                	sd	s0,32(sp)
    80001ea6:	ec26                	sd	s1,24(sp)
    80001ea8:	e84a                	sd	s2,16(sp)
    80001eaa:	e44e                	sd	s3,8(sp)
    80001eac:	1800                	add	s0,sp,48
    80001eae:	89aa                	mv	s3,a0
    80001eb0:	892e                	mv	s2,a1
  struct proc *p = myproc();
    80001eb2:	959ff0ef          	jal	8000180a <myproc>
    80001eb6:	84aa                	mv	s1,a0
  // Once we hold p->lock, we can be
  // guaranteed that we won't miss any wakeup
  // (wakeup locks p->lock),
  // so it's okay to release lk.

  acquire(&p->lock);  //DOC: sleeplock1
    80001eb8:	cbdfe0ef          	jal	80000b74 <acquire>
  release(lk);
    80001ebc:	854a                	mv	a0,s2
    80001ebe:	d4ffe0ef          	jal	80000c0c <release>

  // Go to sleep.
  p->chan = chan;
    80001ec2:	0334b023          	sd	s3,32(s1)
  p->state = SLEEPING;
    80001ec6:	4789                	li	a5,2
    80001ec8:	cc9c                	sw	a5,24(s1)

  sched();
    80001eca:	ef1ff0ef          	jal	80001dba <sched>

  // Tidy up.
  p->chan = 0;
    80001ece:	0204b023          	sd	zero,32(s1)

  // Reacquire original lock.
  release(&p->lock);
    80001ed2:	8526                	mv	a0,s1
    80001ed4:	d39fe0ef          	jal	80000c0c <release>
  acquire(lk);
    80001ed8:	854a                	mv	a0,s2
    80001eda:	c9bfe0ef          	jal	80000b74 <acquire>
}
    80001ede:	70a2                	ld	ra,40(sp)
    80001ee0:	7402                	ld	s0,32(sp)
    80001ee2:	64e2                	ld	s1,24(sp)
    80001ee4:	6942                	ld	s2,16(sp)
    80001ee6:	69a2                	ld	s3,8(sp)
    80001ee8:	6145                	add	sp,sp,48
    80001eea:	8082                	ret

0000000080001eec <wakeup>:

// Wake up all processes sleeping on channel chan.
// Caller should hold the condition lock.
void
wakeup(void *chan)
{
    80001eec:	7139                	add	sp,sp,-64
    80001eee:	fc06                	sd	ra,56(sp)
    80001ef0:	f822                	sd	s0,48(sp)
    80001ef2:	f426                	sd	s1,40(sp)
    80001ef4:	f04a                	sd	s2,32(sp)
    80001ef6:	ec4e                	sd	s3,24(sp)
    80001ef8:	e852                	sd	s4,16(sp)
    80001efa:	e456                	sd	s5,8(sp)
    80001efc:	0080                	add	s0,sp,64
    80001efe:	8a2a                	mv	s4,a0
  struct proc *p;

  for(p = proc; p < &proc[NPROC]; p++) {
    80001f00:	0000e497          	auipc	s1,0xe
    80001f04:	ea848493          	add	s1,s1,-344 # 8000fda8 <proc>
    if(p != myproc()){
      acquire(&p->lock);
      if(p->state == SLEEPING && p->chan == chan) {
    80001f08:	4989                	li	s3,2
        p->state = RUNNABLE;
    80001f0a:	4a8d                	li	s5,3
  for(p = proc; p < &proc[NPROC]; p++) {
    80001f0c:	00014917          	auipc	s2,0x14
    80001f10:	a9c90913          	add	s2,s2,-1380 # 800159a8 <tickslock>
    80001f14:	a801                	j	80001f24 <wakeup+0x38>
      }
      release(&p->lock);
    80001f16:	8526                	mv	a0,s1
    80001f18:	cf5fe0ef          	jal	80000c0c <release>
  for(p = proc; p < &proc[NPROC]; p++) {
    80001f1c:	17048493          	add	s1,s1,368
    80001f20:	03248263          	beq	s1,s2,80001f44 <wakeup+0x58>
    if(p != myproc()){
    80001f24:	8e7ff0ef          	jal	8000180a <myproc>
    80001f28:	fea48ae3          	beq	s1,a0,80001f1c <wakeup+0x30>
      acquire(&p->lock);
    80001f2c:	8526                	mv	a0,s1
    80001f2e:	c47fe0ef          	jal	80000b74 <acquire>
      if(p->state == SLEEPING && p->chan == chan) {
    80001f32:	4c9c                	lw	a5,24(s1)
    80001f34:	ff3791e3          	bne	a5,s3,80001f16 <wakeup+0x2a>
    80001f38:	709c                	ld	a5,32(s1)
    80001f3a:	fd479ee3          	bne	a5,s4,80001f16 <wakeup+0x2a>
        p->state = RUNNABLE;
    80001f3e:	0154ac23          	sw	s5,24(s1)
    80001f42:	bfd1                	j	80001f16 <wakeup+0x2a>
    }
  }
}
    80001f44:	70e2                	ld	ra,56(sp)
    80001f46:	7442                	ld	s0,48(sp)
    80001f48:	74a2                	ld	s1,40(sp)
    80001f4a:	7902                	ld	s2,32(sp)
    80001f4c:	69e2                	ld	s3,24(sp)
    80001f4e:	6a42                	ld	s4,16(sp)
    80001f50:	6aa2                	ld	s5,8(sp)
    80001f52:	6121                	add	sp,sp,64
    80001f54:	8082                	ret

0000000080001f56 <reparent>:
{
    80001f56:	7179                	add	sp,sp,-48
    80001f58:	f406                	sd	ra,40(sp)
    80001f5a:	f022                	sd	s0,32(sp)
    80001f5c:	ec26                	sd	s1,24(sp)
    80001f5e:	e84a                	sd	s2,16(sp)
    80001f60:	e44e                	sd	s3,8(sp)
    80001f62:	e052                	sd	s4,0(sp)
    80001f64:	1800                	add	s0,sp,48
    80001f66:	892a                	mv	s2,a0
  for(pp = proc; pp < &proc[NPROC]; pp++){
    80001f68:	0000e497          	auipc	s1,0xe
    80001f6c:	e4048493          	add	s1,s1,-448 # 8000fda8 <proc>
      pp->parent = initproc;
    80001f70:	00006a17          	auipc	s4,0x6
    80001f74:	900a0a13          	add	s4,s4,-1792 # 80007870 <initproc>
  for(pp = proc; pp < &proc[NPROC]; pp++){
    80001f78:	00014997          	auipc	s3,0x14
    80001f7c:	a3098993          	add	s3,s3,-1488 # 800159a8 <tickslock>
    80001f80:	a029                	j	80001f8a <reparent+0x34>
    80001f82:	17048493          	add	s1,s1,368
    80001f86:	01348b63          	beq	s1,s3,80001f9c <reparent+0x46>
    if(pp->parent == p){
    80001f8a:	7c9c                	ld	a5,56(s1)
    80001f8c:	ff279be3          	bne	a5,s2,80001f82 <reparent+0x2c>
      pp->parent = initproc;
    80001f90:	000a3503          	ld	a0,0(s4)
    80001f94:	fc88                	sd	a0,56(s1)
      wakeup(initproc);
    80001f96:	f57ff0ef          	jal	80001eec <wakeup>
    80001f9a:	b7e5                	j	80001f82 <reparent+0x2c>
}
    80001f9c:	70a2                	ld	ra,40(sp)
    80001f9e:	7402                	ld	s0,32(sp)
    80001fa0:	64e2                	ld	s1,24(sp)
    80001fa2:	6942                	ld	s2,16(sp)
    80001fa4:	69a2                	ld	s3,8(sp)
    80001fa6:	6a02                	ld	s4,0(sp)
    80001fa8:	6145                	add	sp,sp,48
    80001faa:	8082                	ret

0000000080001fac <kexit>:
{
    80001fac:	7179                	add	sp,sp,-48
    80001fae:	f406                	sd	ra,40(sp)
    80001fb0:	f022                	sd	s0,32(sp)
    80001fb2:	ec26                	sd	s1,24(sp)
    80001fb4:	e84a                	sd	s2,16(sp)
    80001fb6:	e44e                	sd	s3,8(sp)
    80001fb8:	e052                	sd	s4,0(sp)
    80001fba:	1800                	add	s0,sp,48
    80001fbc:	8a2a                	mv	s4,a0
  struct proc *p = myproc();
    80001fbe:	84dff0ef          	jal	8000180a <myproc>
    80001fc2:	89aa                	mv	s3,a0
  if(p == initproc)
    80001fc4:	00006797          	auipc	a5,0x6
    80001fc8:	8ac7b783          	ld	a5,-1876(a5) # 80007870 <initproc>
    80001fcc:	0d050493          	add	s1,a0,208
    80001fd0:	15050913          	add	s2,a0,336
    80001fd4:	00a79f63          	bne	a5,a0,80001ff2 <kexit+0x46>
    panic("init exiting");
    80001fd8:	00005517          	auipc	a0,0x5
    80001fdc:	22050513          	add	a0,a0,544 # 800071f8 <digits+0x1c0>
    80001fe0:	fbefe0ef          	jal	8000079e <panic>
      fileclose(f);
    80001fe4:	0c2020ef          	jal	800040a6 <fileclose>
      p->ofile[fd] = 0;
    80001fe8:	0004b023          	sd	zero,0(s1)
  for(int fd = 0; fd < NOFILE; fd++){
    80001fec:	04a1                	add	s1,s1,8
    80001fee:	01248563          	beq	s1,s2,80001ff8 <kexit+0x4c>
    if(p->ofile[fd]){
    80001ff2:	6088                	ld	a0,0(s1)
    80001ff4:	f965                	bnez	a0,80001fe4 <kexit+0x38>
    80001ff6:	bfdd                	j	80001fec <kexit+0x40>
  begin_op();
    80001ff8:	4a9010ef          	jal	80003ca0 <begin_op>
  iput(p->cwd);
    80001ffc:	1509b503          	ld	a0,336(s3)
    80002000:	45c010ef          	jal	8000345c <iput>
  end_op();
    80002004:	507010ef          	jal	80003d0a <end_op>
  p->cwd = 0;
    80002008:	1409b823          	sd	zero,336(s3)
  acquire(&wait_lock);
    8000200c:	0000e497          	auipc	s1,0xe
    80002010:	98448493          	add	s1,s1,-1660 # 8000f990 <wait_lock>
    80002014:	8526                	mv	a0,s1
    80002016:	b5ffe0ef          	jal	80000b74 <acquire>
  reparent(p);
    8000201a:	854e                	mv	a0,s3
    8000201c:	f3bff0ef          	jal	80001f56 <reparent>
  wakeup(p->parent);
    80002020:	0389b503          	ld	a0,56(s3)
    80002024:	ec9ff0ef          	jal	80001eec <wakeup>
  acquire(&p->lock);
    80002028:	854e                	mv	a0,s3
    8000202a:	b4bfe0ef          	jal	80000b74 <acquire>
  p->xstate = status;
    8000202e:	0349a623          	sw	s4,44(s3)
  p->state = ZOMBIE;
    80002032:	4795                	li	a5,5
    80002034:	00f9ac23          	sw	a5,24(s3)
  release(&wait_lock);
    80002038:	8526                	mv	a0,s1
    8000203a:	bd3fe0ef          	jal	80000c0c <release>
  sched();
    8000203e:	d7dff0ef          	jal	80001dba <sched>
  panic("zombie exit");
    80002042:	00005517          	auipc	a0,0x5
    80002046:	1c650513          	add	a0,a0,454 # 80007208 <digits+0x1d0>
    8000204a:	f54fe0ef          	jal	8000079e <panic>

000000008000204e <kkill>:
// Kill the process with the given pid.
// The victim won't exit until it tries to return
// to user space (see usertrap() in trap.c).
int
kkill(int pid)
{
    8000204e:	7179                	add	sp,sp,-48
    80002050:	f406                	sd	ra,40(sp)
    80002052:	f022                	sd	s0,32(sp)
    80002054:	ec26                	sd	s1,24(sp)
    80002056:	e84a                	sd	s2,16(sp)
    80002058:	e44e                	sd	s3,8(sp)
    8000205a:	1800                	add	s0,sp,48
    8000205c:	892a                	mv	s2,a0
  struct proc *p;

  for(p = proc; p < &proc[NPROC]; p++){
    8000205e:	0000e497          	auipc	s1,0xe
    80002062:	d4a48493          	add	s1,s1,-694 # 8000fda8 <proc>
    80002066:	00014997          	auipc	s3,0x14
    8000206a:	94298993          	add	s3,s3,-1726 # 800159a8 <tickslock>
    acquire(&p->lock);
    8000206e:	8526                	mv	a0,s1
    80002070:	b05fe0ef          	jal	80000b74 <acquire>
    if(p->pid == pid){
    80002074:	589c                	lw	a5,48(s1)
    80002076:	01278b63          	beq	a5,s2,8000208c <kkill+0x3e>
        p->state = RUNNABLE;
      }
      release(&p->lock);
      return 0;
    }
    release(&p->lock);
    8000207a:	8526                	mv	a0,s1
    8000207c:	b91fe0ef          	jal	80000c0c <release>
  for(p = proc; p < &proc[NPROC]; p++){
    80002080:	17048493          	add	s1,s1,368
    80002084:	ff3495e3          	bne	s1,s3,8000206e <kkill+0x20>
  }
  return -1;
    80002088:	557d                	li	a0,-1
    8000208a:	a819                	j	800020a0 <kkill+0x52>
      p->killed = 1;
    8000208c:	4785                	li	a5,1
    8000208e:	d49c                	sw	a5,40(s1)
      if(p->state == SLEEPING){
    80002090:	4c98                	lw	a4,24(s1)
    80002092:	4789                	li	a5,2
    80002094:	00f70d63          	beq	a4,a5,800020ae <kkill+0x60>
      release(&p->lock);
    80002098:	8526                	mv	a0,s1
    8000209a:	b73fe0ef          	jal	80000c0c <release>
      return 0;
    8000209e:	4501                	li	a0,0
}
    800020a0:	70a2                	ld	ra,40(sp)
    800020a2:	7402                	ld	s0,32(sp)
    800020a4:	64e2                	ld	s1,24(sp)
    800020a6:	6942                	ld	s2,16(sp)
    800020a8:	69a2                	ld	s3,8(sp)
    800020aa:	6145                	add	sp,sp,48
    800020ac:	8082                	ret
        p->state = RUNNABLE;
    800020ae:	478d                	li	a5,3
    800020b0:	cc9c                	sw	a5,24(s1)
    800020b2:	b7dd                	j	80002098 <kkill+0x4a>

00000000800020b4 <setkilled>:

void
setkilled(struct proc *p)
{
    800020b4:	1101                	add	sp,sp,-32
    800020b6:	ec06                	sd	ra,24(sp)
    800020b8:	e822                	sd	s0,16(sp)
    800020ba:	e426                	sd	s1,8(sp)
    800020bc:	1000                	add	s0,sp,32
    800020be:	84aa                	mv	s1,a0
  acquire(&p->lock);
    800020c0:	ab5fe0ef          	jal	80000b74 <acquire>
  p->killed = 1;
    800020c4:	4785                	li	a5,1
    800020c6:	d49c                	sw	a5,40(s1)
  release(&p->lock);
    800020c8:	8526                	mv	a0,s1
    800020ca:	b43fe0ef          	jal	80000c0c <release>
}
    800020ce:	60e2                	ld	ra,24(sp)
    800020d0:	6442                	ld	s0,16(sp)
    800020d2:	64a2                	ld	s1,8(sp)
    800020d4:	6105                	add	sp,sp,32
    800020d6:	8082                	ret

00000000800020d8 <killed>:

int
killed(struct proc *p)
{
    800020d8:	1101                	add	sp,sp,-32
    800020da:	ec06                	sd	ra,24(sp)
    800020dc:	e822                	sd	s0,16(sp)
    800020de:	e426                	sd	s1,8(sp)
    800020e0:	e04a                	sd	s2,0(sp)
    800020e2:	1000                	add	s0,sp,32
    800020e4:	84aa                	mv	s1,a0
  int k;
  
  acquire(&p->lock);
    800020e6:	a8ffe0ef          	jal	80000b74 <acquire>
  k = p->killed;
    800020ea:	0284a903          	lw	s2,40(s1)
  release(&p->lock);
    800020ee:	8526                	mv	a0,s1
    800020f0:	b1dfe0ef          	jal	80000c0c <release>
  return k;
}
    800020f4:	854a                	mv	a0,s2
    800020f6:	60e2                	ld	ra,24(sp)
    800020f8:	6442                	ld	s0,16(sp)
    800020fa:	64a2                	ld	s1,8(sp)
    800020fc:	6902                	ld	s2,0(sp)
    800020fe:	6105                	add	sp,sp,32
    80002100:	8082                	ret

0000000080002102 <kwait>:
{
    80002102:	715d                	add	sp,sp,-80
    80002104:	e486                	sd	ra,72(sp)
    80002106:	e0a2                	sd	s0,64(sp)
    80002108:	fc26                	sd	s1,56(sp)
    8000210a:	f84a                	sd	s2,48(sp)
    8000210c:	f44e                	sd	s3,40(sp)
    8000210e:	f052                	sd	s4,32(sp)
    80002110:	ec56                	sd	s5,24(sp)
    80002112:	e85a                	sd	s6,16(sp)
    80002114:	e45e                	sd	s7,8(sp)
    80002116:	e062                	sd	s8,0(sp)
    80002118:	0880                	add	s0,sp,80
    8000211a:	8b2a                	mv	s6,a0
  struct proc *p = myproc();
    8000211c:	eeeff0ef          	jal	8000180a <myproc>
    80002120:	892a                	mv	s2,a0
  acquire(&wait_lock);
    80002122:	0000e517          	auipc	a0,0xe
    80002126:	86e50513          	add	a0,a0,-1938 # 8000f990 <wait_lock>
    8000212a:	a4bfe0ef          	jal	80000b74 <acquire>
    havekids = 0;
    8000212e:	4b81                	li	s7,0
        if(pp->state == ZOMBIE){
    80002130:	4a15                	li	s4,5
        havekids = 1;
    80002132:	4a85                	li	s5,1
    for(pp = proc; pp < &proc[NPROC]; pp++){
    80002134:	00014997          	auipc	s3,0x14
    80002138:	87498993          	add	s3,s3,-1932 # 800159a8 <tickslock>
    sleep(p, &wait_lock);  //DOC: wait-sleep
    8000213c:	0000ec17          	auipc	s8,0xe
    80002140:	854c0c13          	add	s8,s8,-1964 # 8000f990 <wait_lock>
    80002144:	a871                	j	800021e0 <kwait+0xde>
          pid = pp->pid;
    80002146:	0304a983          	lw	s3,48(s1)
          if(addr != 0 && copyout(p->pagetable, addr, (char *)&pp->xstate,
    8000214a:	000b0c63          	beqz	s6,80002162 <kwait+0x60>
    8000214e:	4691                	li	a3,4
    80002150:	02c48613          	add	a2,s1,44
    80002154:	85da                	mv	a1,s6
    80002156:	05093503          	ld	a0,80(s2)
    8000215a:	bfeff0ef          	jal	80001558 <copyout>
    8000215e:	02054b63          	bltz	a0,80002194 <kwait+0x92>
          freeproc(pp);
    80002162:	8526                	mv	a0,s1
    80002164:	877ff0ef          	jal	800019da <freeproc>
          release(&pp->lock);
    80002168:	8526                	mv	a0,s1
    8000216a:	aa3fe0ef          	jal	80000c0c <release>
          release(&wait_lock);
    8000216e:	0000e517          	auipc	a0,0xe
    80002172:	82250513          	add	a0,a0,-2014 # 8000f990 <wait_lock>
    80002176:	a97fe0ef          	jal	80000c0c <release>
}
    8000217a:	854e                	mv	a0,s3
    8000217c:	60a6                	ld	ra,72(sp)
    8000217e:	6406                	ld	s0,64(sp)
    80002180:	74e2                	ld	s1,56(sp)
    80002182:	7942                	ld	s2,48(sp)
    80002184:	79a2                	ld	s3,40(sp)
    80002186:	7a02                	ld	s4,32(sp)
    80002188:	6ae2                	ld	s5,24(sp)
    8000218a:	6b42                	ld	s6,16(sp)
    8000218c:	6ba2                	ld	s7,8(sp)
    8000218e:	6c02                	ld	s8,0(sp)
    80002190:	6161                	add	sp,sp,80
    80002192:	8082                	ret
            release(&pp->lock);
    80002194:	8526                	mv	a0,s1
    80002196:	a77fe0ef          	jal	80000c0c <release>
            release(&wait_lock);
    8000219a:	0000d517          	auipc	a0,0xd
    8000219e:	7f650513          	add	a0,a0,2038 # 8000f990 <wait_lock>
    800021a2:	a6bfe0ef          	jal	80000c0c <release>
            return -1;
    800021a6:	59fd                	li	s3,-1
    800021a8:	bfc9                	j	8000217a <kwait+0x78>
    for(pp = proc; pp < &proc[NPROC]; pp++){
    800021aa:	17048493          	add	s1,s1,368
    800021ae:	03348063          	beq	s1,s3,800021ce <kwait+0xcc>
      if(pp->parent == p){
    800021b2:	7c9c                	ld	a5,56(s1)
    800021b4:	ff279be3          	bne	a5,s2,800021aa <kwait+0xa8>
        acquire(&pp->lock);
    800021b8:	8526                	mv	a0,s1
    800021ba:	9bbfe0ef          	jal	80000b74 <acquire>
        if(pp->state == ZOMBIE){
    800021be:	4c9c                	lw	a5,24(s1)
    800021c0:	f94783e3          	beq	a5,s4,80002146 <kwait+0x44>
        release(&pp->lock);
    800021c4:	8526                	mv	a0,s1
    800021c6:	a47fe0ef          	jal	80000c0c <release>
        havekids = 1;
    800021ca:	8756                	mv	a4,s5
    800021cc:	bff9                	j	800021aa <kwait+0xa8>
    if(!havekids || killed(p)){
    800021ce:	cf19                	beqz	a4,800021ec <kwait+0xea>
    800021d0:	854a                	mv	a0,s2
    800021d2:	f07ff0ef          	jal	800020d8 <killed>
    800021d6:	e919                	bnez	a0,800021ec <kwait+0xea>
    sleep(p, &wait_lock);  //DOC: wait-sleep
    800021d8:	85e2                	mv	a1,s8
    800021da:	854a                	mv	a0,s2
    800021dc:	cc5ff0ef          	jal	80001ea0 <sleep>
    havekids = 0;
    800021e0:	875e                	mv	a4,s7
    for(pp = proc; pp < &proc[NPROC]; pp++){
    800021e2:	0000e497          	auipc	s1,0xe
    800021e6:	bc648493          	add	s1,s1,-1082 # 8000fda8 <proc>
    800021ea:	b7e1                	j	800021b2 <kwait+0xb0>
      release(&wait_lock);
    800021ec:	0000d517          	auipc	a0,0xd
    800021f0:	7a450513          	add	a0,a0,1956 # 8000f990 <wait_lock>
    800021f4:	a19fe0ef          	jal	80000c0c <release>
      return -1;
    800021f8:	59fd                	li	s3,-1
    800021fa:	b741                	j	8000217a <kwait+0x78>

00000000800021fc <either_copyout>:
// Copy to either a user address, or kernel address,
// depending on usr_dst.
// Returns 0 on success, -1 on error.
int
either_copyout(int user_dst, uint64 dst, void *src, uint64 len)
{
    800021fc:	7179                	add	sp,sp,-48
    800021fe:	f406                	sd	ra,40(sp)
    80002200:	f022                	sd	s0,32(sp)
    80002202:	ec26                	sd	s1,24(sp)
    80002204:	e84a                	sd	s2,16(sp)
    80002206:	e44e                	sd	s3,8(sp)
    80002208:	e052                	sd	s4,0(sp)
    8000220a:	1800                	add	s0,sp,48
    8000220c:	84aa                	mv	s1,a0
    8000220e:	892e                	mv	s2,a1
    80002210:	89b2                	mv	s3,a2
    80002212:	8a36                	mv	s4,a3
  struct proc *p = myproc();
    80002214:	df6ff0ef          	jal	8000180a <myproc>
  if(user_dst){
    80002218:	cc99                	beqz	s1,80002236 <either_copyout+0x3a>
    return copyout(p->pagetable, dst, src, len);
    8000221a:	86d2                	mv	a3,s4
    8000221c:	864e                	mv	a2,s3
    8000221e:	85ca                	mv	a1,s2
    80002220:	6928                	ld	a0,80(a0)
    80002222:	b36ff0ef          	jal	80001558 <copyout>
  } else {
    memmove((char *)dst, src, len);
    return 0;
  }
}
    80002226:	70a2                	ld	ra,40(sp)
    80002228:	7402                	ld	s0,32(sp)
    8000222a:	64e2                	ld	s1,24(sp)
    8000222c:	6942                	ld	s2,16(sp)
    8000222e:	69a2                	ld	s3,8(sp)
    80002230:	6a02                	ld	s4,0(sp)
    80002232:	6145                	add	sp,sp,48
    80002234:	8082                	ret
    memmove((char *)dst, src, len);
    80002236:	000a061b          	sext.w	a2,s4
    8000223a:	85ce                	mv	a1,s3
    8000223c:	854a                	mv	a0,s2
    8000223e:	a67fe0ef          	jal	80000ca4 <memmove>
    return 0;
    80002242:	8526                	mv	a0,s1
    80002244:	b7cd                	j	80002226 <either_copyout+0x2a>

0000000080002246 <either_copyin>:
// Copy from either a user address, or kernel address,
// depending on usr_src.
// Returns 0 on success, -1 on error.
int
either_copyin(void *dst, int user_src, uint64 src, uint64 len)
{
    80002246:	7179                	add	sp,sp,-48
    80002248:	f406                	sd	ra,40(sp)
    8000224a:	f022                	sd	s0,32(sp)
    8000224c:	ec26                	sd	s1,24(sp)
    8000224e:	e84a                	sd	s2,16(sp)
    80002250:	e44e                	sd	s3,8(sp)
    80002252:	e052                	sd	s4,0(sp)
    80002254:	1800                	add	s0,sp,48
    80002256:	892a                	mv	s2,a0
    80002258:	84ae                	mv	s1,a1
    8000225a:	89b2                	mv	s3,a2
    8000225c:	8a36                	mv	s4,a3
  struct proc *p = myproc();
    8000225e:	dacff0ef          	jal	8000180a <myproc>
  if(user_src){
    80002262:	cc99                	beqz	s1,80002280 <either_copyin+0x3a>
    return copyin(p->pagetable, dst, src, len);
    80002264:	86d2                	mv	a3,s4
    80002266:	864e                	mv	a2,s3
    80002268:	85ca                	mv	a1,s2
    8000226a:	6928                	ld	a0,80(a0)
    8000226c:	bb2ff0ef          	jal	8000161e <copyin>
  } else {
    memmove(dst, (char*)src, len);
    return 0;
  }
}
    80002270:	70a2                	ld	ra,40(sp)
    80002272:	7402                	ld	s0,32(sp)
    80002274:	64e2                	ld	s1,24(sp)
    80002276:	6942                	ld	s2,16(sp)
    80002278:	69a2                	ld	s3,8(sp)
    8000227a:	6a02                	ld	s4,0(sp)
    8000227c:	6145                	add	sp,sp,48
    8000227e:	8082                	ret
    memmove(dst, (char*)src, len);
    80002280:	000a061b          	sext.w	a2,s4
    80002284:	85ce                	mv	a1,s3
    80002286:	854a                	mv	a0,s2
    80002288:	a1dfe0ef          	jal	80000ca4 <memmove>
    return 0;
    8000228c:	8526                	mv	a0,s1
    8000228e:	b7cd                	j	80002270 <either_copyin+0x2a>

0000000080002290 <kgetpinfo>:
// Fill in pstat with information about all processes.
// Returns 0 on success, -1 if st is null.
int
kgetpinfo(struct pstat *st)
{
  if(st == 0)
    80002290:	c525                	beqz	a0,800022f8 <kgetpinfo+0x68>
{
    80002292:	7179                	add	sp,sp,-48
    80002294:	f406                	sd	ra,40(sp)
    80002296:	f022                	sd	s0,32(sp)
    80002298:	ec26                	sd	s1,24(sp)
    8000229a:	e84a                	sd	s2,16(sp)
    8000229c:	e44e                	sd	s3,8(sp)
    8000229e:	1800                	add	s0,sp,48
    800022a0:	892a                	mv	s2,a0
    return -1;

  struct proc *p;
  int i = 0;
  for(p = proc; p < &proc[NPROC]; p++, i++) {
    800022a2:	0000e497          	auipc	s1,0xe
    800022a6:	b0648493          	add	s1,s1,-1274 # 8000fda8 <proc>
    800022aa:	00013997          	auipc	s3,0x13
    800022ae:	6fe98993          	add	s3,s3,1790 # 800159a8 <tickslock>
    acquire(&p->lock);
    800022b2:	8526                	mv	a0,s1
    800022b4:	8c1fe0ef          	jal	80000b74 <acquire>
    st->inuse[i]   = (p->state != UNUSED);
    800022b8:	4c9c                	lw	a5,24(s1)
    800022ba:	00f037b3          	snez	a5,a5
    800022be:	00f92023          	sw	a5,0(s2)
    st->tickets[i] = p->tickets;
    800022c2:	1684a783          	lw	a5,360(s1)
    800022c6:	10f92023          	sw	a5,256(s2)
    st->pid[i]     = p->pid;
    800022ca:	589c                	lw	a5,48(s1)
    800022cc:	20f92023          	sw	a5,512(s2)
    st->ticks[i]   = p->ticks;
    800022d0:	16c4a783          	lw	a5,364(s1)
    800022d4:	30f92023          	sw	a5,768(s2)
    release(&p->lock);
    800022d8:	8526                	mv	a0,s1
    800022da:	933fe0ef          	jal	80000c0c <release>
  for(p = proc; p < &proc[NPROC]; p++, i++) {
    800022de:	17048493          	add	s1,s1,368
    800022e2:	0911                	add	s2,s2,4
    800022e4:	fd3497e3          	bne	s1,s3,800022b2 <kgetpinfo+0x22>
  }
  return 0;
    800022e8:	4501                	li	a0,0
}
    800022ea:	70a2                	ld	ra,40(sp)
    800022ec:	7402                	ld	s0,32(sp)
    800022ee:	64e2                	ld	s1,24(sp)
    800022f0:	6942                	ld	s2,16(sp)
    800022f2:	69a2                	ld	s3,8(sp)
    800022f4:	6145                	add	sp,sp,48
    800022f6:	8082                	ret
    return -1;
    800022f8:	557d                	li	a0,-1
}
    800022fa:	8082                	ret

00000000800022fc <ksettickets>:
// Set the number of tickets for the calling process.
// Returns 0 on success, -1 if number < 1.
int
ksettickets(int number)
{
  if(number < 1)
    800022fc:	02a05a63          	blez	a0,80002330 <ksettickets+0x34>
{
    80002300:	1101                	add	sp,sp,-32
    80002302:	ec06                	sd	ra,24(sp)
    80002304:	e822                	sd	s0,16(sp)
    80002306:	e426                	sd	s1,8(sp)
    80002308:	e04a                	sd	s2,0(sp)
    8000230a:	1000                	add	s0,sp,32
    8000230c:	84aa                	mv	s1,a0
    return -1;
  struct proc *p = myproc();
    8000230e:	cfcff0ef          	jal	8000180a <myproc>
    80002312:	892a                	mv	s2,a0
  acquire(&p->lock);
    80002314:	861fe0ef          	jal	80000b74 <acquire>
  p->tickets = number;
    80002318:	16992423          	sw	s1,360(s2)
  release(&p->lock);
    8000231c:	854a                	mv	a0,s2
    8000231e:	8effe0ef          	jal	80000c0c <release>
  return 0;
    80002322:	4501                	li	a0,0
}
    80002324:	60e2                	ld	ra,24(sp)
    80002326:	6442                	ld	s0,16(sp)
    80002328:	64a2                	ld	s1,8(sp)
    8000232a:	6902                	ld	s2,0(sp)
    8000232c:	6105                	add	sp,sp,32
    8000232e:	8082                	ret
    return -1;
    80002330:	557d                	li	a0,-1
}
    80002332:	8082                	ret

0000000080002334 <procdump>:
// Print a process listing to console.  For debugging.
// Runs when user types ^P on console.
// No lock to avoid wedging a stuck machine further.
void
procdump(void)
{
    80002334:	715d                	add	sp,sp,-80
    80002336:	e486                	sd	ra,72(sp)
    80002338:	e0a2                	sd	s0,64(sp)
    8000233a:	fc26                	sd	s1,56(sp)
    8000233c:	f84a                	sd	s2,48(sp)
    8000233e:	f44e                	sd	s3,40(sp)
    80002340:	f052                	sd	s4,32(sp)
    80002342:	ec56                	sd	s5,24(sp)
    80002344:	e85a                	sd	s6,16(sp)
    80002346:	e45e                	sd	s7,8(sp)
    80002348:	0880                	add	s0,sp,80
  [ZOMBIE]    "zombie"
  };
  struct proc *p;
  char *state;

  printf("\n");
    8000234a:	00005517          	auipc	a0,0x5
    8000234e:	d7650513          	add	a0,a0,-650 # 800070c0 <digits+0x88>
    80002352:	97afe0ef          	jal	800004cc <printf>
  for(p = proc; p < &proc[NPROC]; p++){
    80002356:	0000e497          	auipc	s1,0xe
    8000235a:	baa48493          	add	s1,s1,-1110 # 8000ff00 <proc+0x158>
    8000235e:	00013917          	auipc	s2,0x13
    80002362:	7a290913          	add	s2,s2,1954 # 80015b00 <bcache+0xd8>
    if(p->state == UNUSED)
      continue;
    if(p->state >= 0 && p->state < NELEM(states) && states[p->state])
    80002366:	4b15                	li	s6,5
      state = states[p->state];
    else
      state = "???";
    80002368:	00005997          	auipc	s3,0x5
    8000236c:	eb098993          	add	s3,s3,-336 # 80007218 <digits+0x1e0>
    printf("%d %s %s", p->pid, state, p->name);
    80002370:	00005a97          	auipc	s5,0x5
    80002374:	eb0a8a93          	add	s5,s5,-336 # 80007220 <digits+0x1e8>
    printf("\n");
    80002378:	00005a17          	auipc	s4,0x5
    8000237c:	d48a0a13          	add	s4,s4,-696 # 800070c0 <digits+0x88>
    if(p->state >= 0 && p->state < NELEM(states) && states[p->state])
    80002380:	00005b97          	auipc	s7,0x5
    80002384:	ee0b8b93          	add	s7,s7,-288 # 80007260 <states.0>
    80002388:	a829                	j	800023a2 <procdump+0x6e>
    printf("%d %s %s", p->pid, state, p->name);
    8000238a:	ed86a583          	lw	a1,-296(a3)
    8000238e:	8556                	mv	a0,s5
    80002390:	93cfe0ef          	jal	800004cc <printf>
    printf("\n");
    80002394:	8552                	mv	a0,s4
    80002396:	936fe0ef          	jal	800004cc <printf>
  for(p = proc; p < &proc[NPROC]; p++){
    8000239a:	17048493          	add	s1,s1,368
    8000239e:	03248263          	beq	s1,s2,800023c2 <procdump+0x8e>
    if(p->state == UNUSED)
    800023a2:	86a6                	mv	a3,s1
    800023a4:	ec04a783          	lw	a5,-320(s1)
    800023a8:	dbed                	beqz	a5,8000239a <procdump+0x66>
      state = "???";
    800023aa:	864e                	mv	a2,s3
    if(p->state >= 0 && p->state < NELEM(states) && states[p->state])
    800023ac:	fcfb6fe3          	bltu	s6,a5,8000238a <procdump+0x56>
    800023b0:	02079713          	sll	a4,a5,0x20
    800023b4:	01d75793          	srl	a5,a4,0x1d
    800023b8:	97de                	add	a5,a5,s7
    800023ba:	6390                	ld	a2,0(a5)
    800023bc:	f679                	bnez	a2,8000238a <procdump+0x56>
      state = "???";
    800023be:	864e                	mv	a2,s3
    800023c0:	b7e9                	j	8000238a <procdump+0x56>
  }
}
    800023c2:	60a6                	ld	ra,72(sp)
    800023c4:	6406                	ld	s0,64(sp)
    800023c6:	74e2                	ld	s1,56(sp)
    800023c8:	7942                	ld	s2,48(sp)
    800023ca:	79a2                	ld	s3,40(sp)
    800023cc:	7a02                	ld	s4,32(sp)
    800023ce:	6ae2                	ld	s5,24(sp)
    800023d0:	6b42                	ld	s6,16(sp)
    800023d2:	6ba2                	ld	s7,8(sp)
    800023d4:	6161                	add	sp,sp,80
    800023d6:	8082                	ret

00000000800023d8 <swtch>:
# Save current registers in old. Load from new.	


.globl swtch
swtch:
        sd ra, 0(a0)
    800023d8:	00153023          	sd	ra,0(a0)
        sd sp, 8(a0)
    800023dc:	00253423          	sd	sp,8(a0)
        sd s0, 16(a0)
    800023e0:	e900                	sd	s0,16(a0)
        sd s1, 24(a0)
    800023e2:	ed04                	sd	s1,24(a0)
        sd s2, 32(a0)
    800023e4:	03253023          	sd	s2,32(a0)
        sd s3, 40(a0)
    800023e8:	03353423          	sd	s3,40(a0)
        sd s4, 48(a0)
    800023ec:	03453823          	sd	s4,48(a0)
        sd s5, 56(a0)
    800023f0:	03553c23          	sd	s5,56(a0)
        sd s6, 64(a0)
    800023f4:	05653023          	sd	s6,64(a0)
        sd s7, 72(a0)
    800023f8:	05753423          	sd	s7,72(a0)
        sd s8, 80(a0)
    800023fc:	05853823          	sd	s8,80(a0)
        sd s9, 88(a0)
    80002400:	05953c23          	sd	s9,88(a0)
        sd s10, 96(a0)
    80002404:	07a53023          	sd	s10,96(a0)
        sd s11, 104(a0)
    80002408:	07b53423          	sd	s11,104(a0)

        ld ra, 0(a1)
    8000240c:	0005b083          	ld	ra,0(a1)
        ld sp, 8(a1)
    80002410:	0085b103          	ld	sp,8(a1)
        ld s0, 16(a1)
    80002414:	6980                	ld	s0,16(a1)
        ld s1, 24(a1)
    80002416:	6d84                	ld	s1,24(a1)
        ld s2, 32(a1)
    80002418:	0205b903          	ld	s2,32(a1)
        ld s3, 40(a1)
    8000241c:	0285b983          	ld	s3,40(a1)
        ld s4, 48(a1)
    80002420:	0305ba03          	ld	s4,48(a1)
        ld s5, 56(a1)
    80002424:	0385ba83          	ld	s5,56(a1)
        ld s6, 64(a1)
    80002428:	0405bb03          	ld	s6,64(a1)
        ld s7, 72(a1)
    8000242c:	0485bb83          	ld	s7,72(a1)
        ld s8, 80(a1)
    80002430:	0505bc03          	ld	s8,80(a1)
        ld s9, 88(a1)
    80002434:	0585bc83          	ld	s9,88(a1)
        ld s10, 96(a1)
    80002438:	0605bd03          	ld	s10,96(a1)
        ld s11, 104(a1)
    8000243c:	0685bd83          	ld	s11,104(a1)
        
        ret
    80002440:	8082                	ret

0000000080002442 <trapinit>:

extern int devintr();

void
trapinit(void)
{
    80002442:	1141                	add	sp,sp,-16
    80002444:	e406                	sd	ra,8(sp)
    80002446:	e022                	sd	s0,0(sp)
    80002448:	0800                	add	s0,sp,16
  initlock(&tickslock, "time");
    8000244a:	00005597          	auipc	a1,0x5
    8000244e:	e4658593          	add	a1,a1,-442 # 80007290 <states.0+0x30>
    80002452:	00013517          	auipc	a0,0x13
    80002456:	55650513          	add	a0,a0,1366 # 800159a8 <tickslock>
    8000245a:	e9afe0ef          	jal	80000af4 <initlock>
}
    8000245e:	60a2                	ld	ra,8(sp)
    80002460:	6402                	ld	s0,0(sp)
    80002462:	0141                	add	sp,sp,16
    80002464:	8082                	ret

0000000080002466 <trapinithart>:

// set up to take exceptions and traps while in the kernel.
void
trapinithart(void)
{
    80002466:	1141                	add	sp,sp,-16
    80002468:	e422                	sd	s0,8(sp)
    8000246a:	0800                	add	s0,sp,16
  asm volatile("csrw stvec, %0" : : "r" (x));
    8000246c:	00003797          	auipc	a5,0x3
    80002470:	ed478793          	add	a5,a5,-300 # 80005340 <kernelvec>
    80002474:	10579073          	csrw	stvec,a5
  w_stvec((uint64)kernelvec);
}
    80002478:	6422                	ld	s0,8(sp)
    8000247a:	0141                	add	sp,sp,16
    8000247c:	8082                	ret

000000008000247e <prepare_return>:
//
// set up trapframe and control registers for a return to user space
//
void
prepare_return(void)
{
    8000247e:	1141                	add	sp,sp,-16
    80002480:	e406                	sd	ra,8(sp)
    80002482:	e022                	sd	s0,0(sp)
    80002484:	0800                	add	s0,sp,16
  struct proc *p = myproc();
    80002486:	b84ff0ef          	jal	8000180a <myproc>
  asm volatile("csrr %0, sstatus" : "=r" (x) );
    8000248a:	100027f3          	csrr	a5,sstatus
  w_sstatus(r_sstatus() & ~SSTATUS_SIE);
    8000248e:	9bf5                	and	a5,a5,-3
  asm volatile("csrw sstatus, %0" : : "r" (x));
    80002490:	10079073          	csrw	sstatus,a5
  // kerneltrap() to usertrap(). because a trap from kernel
  // code to usertrap would be a disaster, turn off interrupts.
  intr_off();

  // send syscalls, interrupts, and exceptions to uservec in trampoline.S
  uint64 trampoline_uservec = TRAMPOLINE + (uservec - trampoline);
    80002494:	04000737          	lui	a4,0x4000
    80002498:	00004797          	auipc	a5,0x4
    8000249c:	b6878793          	add	a5,a5,-1176 # 80006000 <_trampoline>
    800024a0:	00004697          	auipc	a3,0x4
    800024a4:	b6068693          	add	a3,a3,-1184 # 80006000 <_trampoline>
    800024a8:	8f95                	sub	a5,a5,a3
    800024aa:	177d                	add	a4,a4,-1 # 3ffffff <_entry-0x7c000001>
    800024ac:	0732                	sll	a4,a4,0xc
    800024ae:	97ba                	add	a5,a5,a4
  asm volatile("csrw stvec, %0" : : "r" (x));
    800024b0:	10579073          	csrw	stvec,a5
  w_stvec(trampoline_uservec);

  // set up trapframe values that uservec will need when
  // the process next traps into the kernel.
  p->trapframe->kernel_satp = r_satp();         // kernel page table
    800024b4:	6d3c                	ld	a5,88(a0)
  asm volatile("csrr %0, satp" : "=r" (x) );
    800024b6:	18002773          	csrr	a4,satp
    800024ba:	e398                	sd	a4,0(a5)
  p->trapframe->kernel_sp = p->kstack + PGSIZE; // process's kernel stack
    800024bc:	6d38                	ld	a4,88(a0)
    800024be:	613c                	ld	a5,64(a0)
    800024c0:	6685                	lui	a3,0x1
    800024c2:	97b6                	add	a5,a5,a3
    800024c4:	e71c                	sd	a5,8(a4)
  p->trapframe->kernel_trap = (uint64)usertrap;
    800024c6:	6d3c                	ld	a5,88(a0)
    800024c8:	00000717          	auipc	a4,0x0
    800024cc:	0f470713          	add	a4,a4,244 # 800025bc <usertrap>
    800024d0:	eb98                	sd	a4,16(a5)
  p->trapframe->kernel_hartid = r_tp();         // hartid for cpuid()
    800024d2:	6d3c                	ld	a5,88(a0)
  asm volatile("mv %0, tp" : "=r" (x) );
    800024d4:	8712                	mv	a4,tp
    800024d6:	f398                	sd	a4,32(a5)
  asm volatile("csrr %0, sstatus" : "=r" (x) );
    800024d8:	100027f3          	csrr	a5,sstatus
  // set up the registers that trampoline.S's sret will use
  // to get to user space.
  
  // set S Previous Privilege mode to User.
  unsigned long x = r_sstatus();
  x &= ~SSTATUS_SPP; // clear SPP to 0 for user mode
    800024dc:	eff7f793          	and	a5,a5,-257
  x |= SSTATUS_SPIE; // enable interrupts in user mode
    800024e0:	0207e793          	or	a5,a5,32
  asm volatile("csrw sstatus, %0" : : "r" (x));
    800024e4:	10079073          	csrw	sstatus,a5
  w_sstatus(x);

  // set S Exception Program Counter to the saved user pc.
  w_sepc(p->trapframe->epc);
    800024e8:	6d3c                	ld	a5,88(a0)
  asm volatile("csrw sepc, %0" : : "r" (x));
    800024ea:	6f9c                	ld	a5,24(a5)
    800024ec:	14179073          	csrw	sepc,a5
}
    800024f0:	60a2                	ld	ra,8(sp)
    800024f2:	6402                	ld	s0,0(sp)
    800024f4:	0141                	add	sp,sp,16
    800024f6:	8082                	ret

00000000800024f8 <clockintr>:
  w_sstatus(sstatus);
}

void
clockintr()
{
    800024f8:	1101                	add	sp,sp,-32
    800024fa:	ec06                	sd	ra,24(sp)
    800024fc:	e822                	sd	s0,16(sp)
    800024fe:	e426                	sd	s1,8(sp)
    80002500:	1000                	add	s0,sp,32
  if(cpuid() == 0){
    80002502:	adcff0ef          	jal	800017de <cpuid>
    80002506:	cd19                	beqz	a0,80002524 <clockintr+0x2c>
  asm volatile("csrr %0, time" : "=r" (x) );
    80002508:	c01027f3          	rdtime	a5
  }

  // ask for the next timer interrupt. this also clears
  // the interrupt request. 1000000 is about a tenth
  // of a second.
  w_stimecmp(r_time() + 1000000);
    8000250c:	000f4737          	lui	a4,0xf4
    80002510:	24070713          	add	a4,a4,576 # f4240 <_entry-0x7ff0bdc0>
    80002514:	97ba                	add	a5,a5,a4
  asm volatile("csrw 0x14d, %0" : : "r" (x));
    80002516:	14d79073          	csrw	stimecmp,a5
}
    8000251a:	60e2                	ld	ra,24(sp)
    8000251c:	6442                	ld	s0,16(sp)
    8000251e:	64a2                	ld	s1,8(sp)
    80002520:	6105                	add	sp,sp,32
    80002522:	8082                	ret
    acquire(&tickslock);
    80002524:	00013497          	auipc	s1,0x13
    80002528:	48448493          	add	s1,s1,1156 # 800159a8 <tickslock>
    8000252c:	8526                	mv	a0,s1
    8000252e:	e46fe0ef          	jal	80000b74 <acquire>
    ticks++;
    80002532:	00005517          	auipc	a0,0x5
    80002536:	34650513          	add	a0,a0,838 # 80007878 <ticks>
    8000253a:	411c                	lw	a5,0(a0)
    8000253c:	2785                	addw	a5,a5,1
    8000253e:	c11c                	sw	a5,0(a0)
    wakeup(&ticks);
    80002540:	9adff0ef          	jal	80001eec <wakeup>
    release(&tickslock);
    80002544:	8526                	mv	a0,s1
    80002546:	ec6fe0ef          	jal	80000c0c <release>
    8000254a:	bf7d                	j	80002508 <clockintr+0x10>

000000008000254c <devintr>:
// returns 2 if timer interrupt,
// 1 if other device,
// 0 if not recognized.
int
devintr()
{
    8000254c:	1101                	add	sp,sp,-32
    8000254e:	ec06                	sd	ra,24(sp)
    80002550:	e822                	sd	s0,16(sp)
    80002552:	e426                	sd	s1,8(sp)
    80002554:	1000                	add	s0,sp,32
  asm volatile("csrr %0, scause" : "=r" (x) );
    80002556:	14202773          	csrr	a4,scause
  uint64 scause = r_scause();

  if(scause == 0x8000000000000009L){
    8000255a:	57fd                	li	a5,-1
    8000255c:	17fe                	sll	a5,a5,0x3f
    8000255e:	07a5                	add	a5,a5,9
    80002560:	00f70d63          	beq	a4,a5,8000257a <devintr+0x2e>
    // now allowed to interrupt again.
    if(irq)
      plic_complete(irq);

    return 1;
  } else if(scause == 0x8000000000000005L){
    80002564:	57fd                	li	a5,-1
    80002566:	17fe                	sll	a5,a5,0x3f
    80002568:	0795                	add	a5,a5,5
    // timer interrupt.
    clockintr();
    return 2;
  } else {
    return 0;
    8000256a:	4501                	li	a0,0
  } else if(scause == 0x8000000000000005L){
    8000256c:	04f70463          	beq	a4,a5,800025b4 <devintr+0x68>
  }
}
    80002570:	60e2                	ld	ra,24(sp)
    80002572:	6442                	ld	s0,16(sp)
    80002574:	64a2                	ld	s1,8(sp)
    80002576:	6105                	add	sp,sp,32
    80002578:	8082                	ret
    int irq = plic_claim();
    8000257a:	66f020ef          	jal	800053e8 <plic_claim>
    8000257e:	84aa                	mv	s1,a0
    if(irq == UART0_IRQ){
    80002580:	47a9                	li	a5,10
    80002582:	02f50363          	beq	a0,a5,800025a8 <devintr+0x5c>
    } else if(irq == VIRTIO0_IRQ){
    80002586:	4785                	li	a5,1
    80002588:	02f50363          	beq	a0,a5,800025ae <devintr+0x62>
    return 1;
    8000258c:	4505                	li	a0,1
    } else if(irq){
    8000258e:	d0ed                	beqz	s1,80002570 <devintr+0x24>
      printf("unexpected interrupt irq=%d\n", irq);
    80002590:	85a6                	mv	a1,s1
    80002592:	00005517          	auipc	a0,0x5
    80002596:	d0650513          	add	a0,a0,-762 # 80007298 <states.0+0x38>
    8000259a:	f33fd0ef          	jal	800004cc <printf>
      plic_complete(irq);
    8000259e:	8526                	mv	a0,s1
    800025a0:	669020ef          	jal	80005408 <plic_complete>
    return 1;
    800025a4:	4505                	li	a0,1
    800025a6:	b7e9                	j	80002570 <devintr+0x24>
      uartintr();
    800025a8:	bb6fe0ef          	jal	8000095e <uartintr>
    if(irq)
    800025ac:	bfcd                	j	8000259e <devintr+0x52>
      virtio_disk_intr();
    800025ae:	2c4030ef          	jal	80005872 <virtio_disk_intr>
    if(irq)
    800025b2:	b7f5                	j	8000259e <devintr+0x52>
    clockintr();
    800025b4:	f45ff0ef          	jal	800024f8 <clockintr>
    return 2;
    800025b8:	4509                	li	a0,2
    800025ba:	bf5d                	j	80002570 <devintr+0x24>

00000000800025bc <usertrap>:
{
    800025bc:	1101                	add	sp,sp,-32
    800025be:	ec06                	sd	ra,24(sp)
    800025c0:	e822                	sd	s0,16(sp)
    800025c2:	e426                	sd	s1,8(sp)
    800025c4:	e04a                	sd	s2,0(sp)
    800025c6:	1000                	add	s0,sp,32
  asm volatile("csrr %0, sstatus" : "=r" (x) );
    800025c8:	100027f3          	csrr	a5,sstatus
  if((r_sstatus() & SSTATUS_SPP) != 0)
    800025cc:	1007f793          	and	a5,a5,256
    800025d0:	eba5                	bnez	a5,80002640 <usertrap+0x84>
  asm volatile("csrw stvec, %0" : : "r" (x));
    800025d2:	00003797          	auipc	a5,0x3
    800025d6:	d6e78793          	add	a5,a5,-658 # 80005340 <kernelvec>
    800025da:	10579073          	csrw	stvec,a5
  struct proc *p = myproc();
    800025de:	a2cff0ef          	jal	8000180a <myproc>
    800025e2:	84aa                	mv	s1,a0
  p->trapframe->epc = r_sepc();
    800025e4:	6d3c                	ld	a5,88(a0)
  asm volatile("csrr %0, sepc" : "=r" (x) );
    800025e6:	14102773          	csrr	a4,sepc
    800025ea:	ef98                	sd	a4,24(a5)
  asm volatile("csrr %0, scause" : "=r" (x) );
    800025ec:	14202773          	csrr	a4,scause
  if(r_scause() == 8){
    800025f0:	47a1                	li	a5,8
    800025f2:	04f70d63          	beq	a4,a5,8000264c <usertrap+0x90>
  } else if((which_dev = devintr()) != 0){
    800025f6:	f57ff0ef          	jal	8000254c <devintr>
    800025fa:	892a                	mv	s2,a0
    800025fc:	e945                	bnez	a0,800026ac <usertrap+0xf0>
    800025fe:	14202773          	csrr	a4,scause
  } else if((r_scause() == 15 || r_scause() == 13) &&
    80002602:	47bd                	li	a5,15
    80002604:	08f70863          	beq	a4,a5,80002694 <usertrap+0xd8>
    80002608:	14202773          	csrr	a4,scause
    8000260c:	47b5                	li	a5,13
    8000260e:	08f70363          	beq	a4,a5,80002694 <usertrap+0xd8>
    80002612:	142025f3          	csrr	a1,scause
    printf("usertrap(): unexpected scause 0x%lx pid=%d\n", r_scause(), p->pid);
    80002616:	5890                	lw	a2,48(s1)
    80002618:	00005517          	auipc	a0,0x5
    8000261c:	cc050513          	add	a0,a0,-832 # 800072d8 <states.0+0x78>
    80002620:	eadfd0ef          	jal	800004cc <printf>
  asm volatile("csrr %0, sepc" : "=r" (x) );
    80002624:	141025f3          	csrr	a1,sepc
  asm volatile("csrr %0, stval" : "=r" (x) );
    80002628:	14302673          	csrr	a2,stval
    printf("            sepc=0x%lx stval=0x%lx\n", r_sepc(), r_stval());
    8000262c:	00005517          	auipc	a0,0x5
    80002630:	cdc50513          	add	a0,a0,-804 # 80007308 <states.0+0xa8>
    80002634:	e99fd0ef          	jal	800004cc <printf>
    setkilled(p);
    80002638:	8526                	mv	a0,s1
    8000263a:	a7bff0ef          	jal	800020b4 <setkilled>
    8000263e:	a035                	j	8000266a <usertrap+0xae>
    panic("usertrap: not from user mode");
    80002640:	00005517          	auipc	a0,0x5
    80002644:	c7850513          	add	a0,a0,-904 # 800072b8 <states.0+0x58>
    80002648:	956fe0ef          	jal	8000079e <panic>
    if(killed(p))
    8000264c:	a8dff0ef          	jal	800020d8 <killed>
    80002650:	ed15                	bnez	a0,8000268c <usertrap+0xd0>
    p->trapframe->epc += 4;
    80002652:	6cb8                	ld	a4,88(s1)
    80002654:	6f1c                	ld	a5,24(a4)
    80002656:	0791                	add	a5,a5,4
    80002658:	ef1c                	sd	a5,24(a4)
  asm volatile("csrr %0, sstatus" : "=r" (x) );
    8000265a:	100027f3          	csrr	a5,sstatus
  w_sstatus(r_sstatus() | SSTATUS_SIE);
    8000265e:	0027e793          	or	a5,a5,2
  asm volatile("csrw sstatus, %0" : : "r" (x));
    80002662:	10079073          	csrw	sstatus,a5
    syscall();
    80002666:	27e000ef          	jal	800028e4 <syscall>
  if(killed(p))
    8000266a:	8526                	mv	a0,s1
    8000266c:	a6dff0ef          	jal	800020d8 <killed>
    80002670:	e139                	bnez	a0,800026b6 <usertrap+0xfa>
  prepare_return();
    80002672:	e0dff0ef          	jal	8000247e <prepare_return>
  uint64 satp = MAKE_SATP(p->pagetable);
    80002676:	68a8                	ld	a0,80(s1)
    80002678:	8131                	srl	a0,a0,0xc
    8000267a:	57fd                	li	a5,-1
    8000267c:	17fe                	sll	a5,a5,0x3f
    8000267e:	8d5d                	or	a0,a0,a5
}
    80002680:	60e2                	ld	ra,24(sp)
    80002682:	6442                	ld	s0,16(sp)
    80002684:	64a2                	ld	s1,8(sp)
    80002686:	6902                	ld	s2,0(sp)
    80002688:	6105                	add	sp,sp,32
    8000268a:	8082                	ret
      kexit(-1);
    8000268c:	557d                	li	a0,-1
    8000268e:	91fff0ef          	jal	80001fac <kexit>
    80002692:	b7c1                	j	80002652 <usertrap+0x96>
  asm volatile("csrr %0, stval" : "=r" (x) );
    80002694:	143025f3          	csrr	a1,stval
  asm volatile("csrr %0, scause" : "=r" (x) );
    80002698:	14202673          	csrr	a2,scause
            vmfault(p->pagetable, r_stval(), (r_scause() == 13)? 1 : 0) != 0) {
    8000269c:	164d                	add	a2,a2,-13 # ff3 <_entry-0x7ffff00d>
    8000269e:	00163613          	seqz	a2,a2
    800026a2:	68a8                	ld	a0,80(s1)
    800026a4:	e43fe0ef          	jal	800014e6 <vmfault>
  } else if((r_scause() == 15 || r_scause() == 13) &&
    800026a8:	f169                	bnez	a0,8000266a <usertrap+0xae>
    800026aa:	b7a5                	j	80002612 <usertrap+0x56>
  if(killed(p))
    800026ac:	8526                	mv	a0,s1
    800026ae:	a2bff0ef          	jal	800020d8 <killed>
    800026b2:	c511                	beqz	a0,800026be <usertrap+0x102>
    800026b4:	a011                	j	800026b8 <usertrap+0xfc>
    800026b6:	4901                	li	s2,0
    kexit(-1);
    800026b8:	557d                	li	a0,-1
    800026ba:	8f3ff0ef          	jal	80001fac <kexit>
  if(which_dev == 2)
    800026be:	4789                	li	a5,2
    800026c0:	faf919e3          	bne	s2,a5,80002672 <usertrap+0xb6>
    yield();
    800026c4:	fb0ff0ef          	jal	80001e74 <yield>
    800026c8:	b76d                	j	80002672 <usertrap+0xb6>

00000000800026ca <kerneltrap>:
{
    800026ca:	7179                	add	sp,sp,-48
    800026cc:	f406                	sd	ra,40(sp)
    800026ce:	f022                	sd	s0,32(sp)
    800026d0:	ec26                	sd	s1,24(sp)
    800026d2:	e84a                	sd	s2,16(sp)
    800026d4:	e44e                	sd	s3,8(sp)
    800026d6:	1800                	add	s0,sp,48
  asm volatile("csrr %0, sepc" : "=r" (x) );
    800026d8:	14102973          	csrr	s2,sepc
  asm volatile("csrr %0, sstatus" : "=r" (x) );
    800026dc:	100024f3          	csrr	s1,sstatus
  asm volatile("csrr %0, scause" : "=r" (x) );
    800026e0:	142029f3          	csrr	s3,scause
  if((sstatus & SSTATUS_SPP) == 0)
    800026e4:	1004f793          	and	a5,s1,256
    800026e8:	c795                	beqz	a5,80002714 <kerneltrap+0x4a>
  asm volatile("csrr %0, sstatus" : "=r" (x) );
    800026ea:	100027f3          	csrr	a5,sstatus
  return (x & SSTATUS_SIE) != 0;
    800026ee:	8b89                	and	a5,a5,2
  if(intr_get() != 0)
    800026f0:	eb85                	bnez	a5,80002720 <kerneltrap+0x56>
  if((which_dev = devintr()) == 0){
    800026f2:	e5bff0ef          	jal	8000254c <devintr>
    800026f6:	c91d                	beqz	a0,8000272c <kerneltrap+0x62>
  if(which_dev == 2 && myproc() != 0)
    800026f8:	4789                	li	a5,2
    800026fa:	04f50a63          	beq	a0,a5,8000274e <kerneltrap+0x84>
  asm volatile("csrw sepc, %0" : : "r" (x));
    800026fe:	14191073          	csrw	sepc,s2
  asm volatile("csrw sstatus, %0" : : "r" (x));
    80002702:	10049073          	csrw	sstatus,s1
}
    80002706:	70a2                	ld	ra,40(sp)
    80002708:	7402                	ld	s0,32(sp)
    8000270a:	64e2                	ld	s1,24(sp)
    8000270c:	6942                	ld	s2,16(sp)
    8000270e:	69a2                	ld	s3,8(sp)
    80002710:	6145                	add	sp,sp,48
    80002712:	8082                	ret
    panic("kerneltrap: not from supervisor mode");
    80002714:	00005517          	auipc	a0,0x5
    80002718:	c1c50513          	add	a0,a0,-996 # 80007330 <states.0+0xd0>
    8000271c:	882fe0ef          	jal	8000079e <panic>
    panic("kerneltrap: interrupts enabled");
    80002720:	00005517          	auipc	a0,0x5
    80002724:	c3850513          	add	a0,a0,-968 # 80007358 <states.0+0xf8>
    80002728:	876fe0ef          	jal	8000079e <panic>
  asm volatile("csrr %0, sepc" : "=r" (x) );
    8000272c:	14102673          	csrr	a2,sepc
  asm volatile("csrr %0, stval" : "=r" (x) );
    80002730:	143026f3          	csrr	a3,stval
    printf("scause=0x%lx sepc=0x%lx stval=0x%lx\n", scause, r_sepc(), r_stval());
    80002734:	85ce                	mv	a1,s3
    80002736:	00005517          	auipc	a0,0x5
    8000273a:	c4250513          	add	a0,a0,-958 # 80007378 <states.0+0x118>
    8000273e:	d8ffd0ef          	jal	800004cc <printf>
    panic("kerneltrap");
    80002742:	00005517          	auipc	a0,0x5
    80002746:	c5e50513          	add	a0,a0,-930 # 800073a0 <states.0+0x140>
    8000274a:	854fe0ef          	jal	8000079e <panic>
  if(which_dev == 2 && myproc() != 0)
    8000274e:	8bcff0ef          	jal	8000180a <myproc>
    80002752:	d555                	beqz	a0,800026fe <kerneltrap+0x34>
    yield();
    80002754:	f20ff0ef          	jal	80001e74 <yield>
    80002758:	b75d                	j	800026fe <kerneltrap+0x34>

000000008000275a <argraw>:
  return strlen(buf);
}

static uint64
argraw(int n)
{
    8000275a:	1101                	add	sp,sp,-32
    8000275c:	ec06                	sd	ra,24(sp)
    8000275e:	e822                	sd	s0,16(sp)
    80002760:	e426                	sd	s1,8(sp)
    80002762:	1000                	add	s0,sp,32
    80002764:	84aa                	mv	s1,a0
  struct proc *p = myproc();
    80002766:	8a4ff0ef          	jal	8000180a <myproc>
  switch (n) {
    8000276a:	4795                	li	a5,5
    8000276c:	0497e163          	bltu	a5,s1,800027ae <argraw+0x54>
    80002770:	048a                	sll	s1,s1,0x2
    80002772:	00005717          	auipc	a4,0x5
    80002776:	c6670713          	add	a4,a4,-922 # 800073d8 <states.0+0x178>
    8000277a:	94ba                	add	s1,s1,a4
    8000277c:	409c                	lw	a5,0(s1)
    8000277e:	97ba                	add	a5,a5,a4
    80002780:	8782                	jr	a5
  case 0:
    return p->trapframe->a0;
    80002782:	6d3c                	ld	a5,88(a0)
    80002784:	7ba8                	ld	a0,112(a5)
  case 5:
    return p->trapframe->a5;
  }
  panic("argraw");
  return -1;
}
    80002786:	60e2                	ld	ra,24(sp)
    80002788:	6442                	ld	s0,16(sp)
    8000278a:	64a2                	ld	s1,8(sp)
    8000278c:	6105                	add	sp,sp,32
    8000278e:	8082                	ret
    return p->trapframe->a1;
    80002790:	6d3c                	ld	a5,88(a0)
    80002792:	7fa8                	ld	a0,120(a5)
    80002794:	bfcd                	j	80002786 <argraw+0x2c>
    return p->trapframe->a2;
    80002796:	6d3c                	ld	a5,88(a0)
    80002798:	63c8                	ld	a0,128(a5)
    8000279a:	b7f5                	j	80002786 <argraw+0x2c>
    return p->trapframe->a3;
    8000279c:	6d3c                	ld	a5,88(a0)
    8000279e:	67c8                	ld	a0,136(a5)
    800027a0:	b7dd                	j	80002786 <argraw+0x2c>
    return p->trapframe->a4;
    800027a2:	6d3c                	ld	a5,88(a0)
    800027a4:	6bc8                	ld	a0,144(a5)
    800027a6:	b7c5                	j	80002786 <argraw+0x2c>
    return p->trapframe->a5;
    800027a8:	6d3c                	ld	a5,88(a0)
    800027aa:	6fc8                	ld	a0,152(a5)
    800027ac:	bfe9                	j	80002786 <argraw+0x2c>
  panic("argraw");
    800027ae:	00005517          	auipc	a0,0x5
    800027b2:	c0250513          	add	a0,a0,-1022 # 800073b0 <states.0+0x150>
    800027b6:	fe9fd0ef          	jal	8000079e <panic>

00000000800027ba <fetchaddr>:
{
    800027ba:	1101                	add	sp,sp,-32
    800027bc:	ec06                	sd	ra,24(sp)
    800027be:	e822                	sd	s0,16(sp)
    800027c0:	e426                	sd	s1,8(sp)
    800027c2:	e04a                	sd	s2,0(sp)
    800027c4:	1000                	add	s0,sp,32
    800027c6:	84aa                	mv	s1,a0
    800027c8:	892e                	mv	s2,a1
  struct proc *p = myproc();
    800027ca:	840ff0ef          	jal	8000180a <myproc>
  if(addr >= p->sz || addr+sizeof(uint64) > p->sz) // both tests needed, in case of overflow
    800027ce:	653c                	ld	a5,72(a0)
    800027d0:	02f4f663          	bgeu	s1,a5,800027fc <fetchaddr+0x42>
    800027d4:	00848713          	add	a4,s1,8
    800027d8:	02e7e463          	bltu	a5,a4,80002800 <fetchaddr+0x46>
  if(copyin(p->pagetable, (char *)ip, addr, sizeof(*ip)) != 0)
    800027dc:	46a1                	li	a3,8
    800027de:	8626                	mv	a2,s1
    800027e0:	85ca                	mv	a1,s2
    800027e2:	6928                	ld	a0,80(a0)
    800027e4:	e3bfe0ef          	jal	8000161e <copyin>
    800027e8:	00a03533          	snez	a0,a0
    800027ec:	40a00533          	neg	a0,a0
}
    800027f0:	60e2                	ld	ra,24(sp)
    800027f2:	6442                	ld	s0,16(sp)
    800027f4:	64a2                	ld	s1,8(sp)
    800027f6:	6902                	ld	s2,0(sp)
    800027f8:	6105                	add	sp,sp,32
    800027fa:	8082                	ret
    return -1;
    800027fc:	557d                	li	a0,-1
    800027fe:	bfcd                	j	800027f0 <fetchaddr+0x36>
    80002800:	557d                	li	a0,-1
    80002802:	b7fd                	j	800027f0 <fetchaddr+0x36>

0000000080002804 <fetchstr>:
{
    80002804:	7179                	add	sp,sp,-48
    80002806:	f406                	sd	ra,40(sp)
    80002808:	f022                	sd	s0,32(sp)
    8000280a:	ec26                	sd	s1,24(sp)
    8000280c:	e84a                	sd	s2,16(sp)
    8000280e:	e44e                	sd	s3,8(sp)
    80002810:	1800                	add	s0,sp,48
    80002812:	892a                	mv	s2,a0
    80002814:	84ae                	mv	s1,a1
    80002816:	89b2                	mv	s3,a2
  struct proc *p = myproc();
    80002818:	ff3fe0ef          	jal	8000180a <myproc>
  if(copyinstr(p->pagetable, buf, addr, max) < 0)
    8000281c:	86ce                	mv	a3,s3
    8000281e:	864a                	mv	a2,s2
    80002820:	85a6                	mv	a1,s1
    80002822:	6928                	ld	a0,80(a0)
    80002824:	bf7fe0ef          	jal	8000141a <copyinstr>
    80002828:	00054c63          	bltz	a0,80002840 <fetchstr+0x3c>
  return strlen(buf);
    8000282c:	8526                	mv	a0,s1
    8000282e:	d90fe0ef          	jal	80000dbe <strlen>
}
    80002832:	70a2                	ld	ra,40(sp)
    80002834:	7402                	ld	s0,32(sp)
    80002836:	64e2                	ld	s1,24(sp)
    80002838:	6942                	ld	s2,16(sp)
    8000283a:	69a2                	ld	s3,8(sp)
    8000283c:	6145                	add	sp,sp,48
    8000283e:	8082                	ret
    return -1;
    80002840:	557d                	li	a0,-1
    80002842:	bfc5                	j	80002832 <fetchstr+0x2e>

0000000080002844 <argint>:

// Fetch the nth 32-bit system call argument.
void
argint(int n, int *ip)
{
    80002844:	1101                	add	sp,sp,-32
    80002846:	ec06                	sd	ra,24(sp)
    80002848:	e822                	sd	s0,16(sp)
    8000284a:	e426                	sd	s1,8(sp)
    8000284c:	1000                	add	s0,sp,32
    8000284e:	84ae                	mv	s1,a1
  *ip = argraw(n);
    80002850:	f0bff0ef          	jal	8000275a <argraw>
    80002854:	c088                	sw	a0,0(s1)
}
    80002856:	60e2                	ld	ra,24(sp)
    80002858:	6442                	ld	s0,16(sp)
    8000285a:	64a2                	ld	s1,8(sp)
    8000285c:	6105                	add	sp,sp,32
    8000285e:	8082                	ret

0000000080002860 <sys_getcnt>:
}


uint64
sys_getcnt(void)
{
    80002860:	1101                	add	sp,sp,-32
    80002862:	ec06                	sd	ra,24(sp)
    80002864:	e822                	sd	s0,16(sp)
    80002866:	1000                	add	s0,sp,32
  int n;
  argint(0, &n);
    80002868:	fec40593          	add	a1,s0,-20
    8000286c:	4501                	li	a0,0
    8000286e:	fd7ff0ef          	jal	80002844 <argint>

  if(n <= 0 || n >= NELEM(syscalls))
    80002872:	fec42783          	lw	a5,-20(s0)
    80002876:	fff7869b          	addw	a3,a5,-1
    8000287a:	475d                	li	a4,23
    return -1;
    8000287c:	557d                	li	a0,-1
  if(n <= 0 || n >= NELEM(syscalls))
    8000287e:	00d76963          	bltu	a4,a3,80002890 <sys_getcnt+0x30>

  return syscall_counts[n];
    80002882:	078a                	sll	a5,a5,0x2
    80002884:	00013717          	auipc	a4,0x13
    80002888:	13c70713          	add	a4,a4,316 # 800159c0 <syscall_counts>
    8000288c:	97ba                	add	a5,a5,a4
    8000288e:	4388                	lw	a0,0(a5)
}
    80002890:	60e2                	ld	ra,24(sp)
    80002892:	6442                	ld	s0,16(sp)
    80002894:	6105                	add	sp,sp,32
    80002896:	8082                	ret

0000000080002898 <argaddr>:
{
    80002898:	1101                	add	sp,sp,-32
    8000289a:	ec06                	sd	ra,24(sp)
    8000289c:	e822                	sd	s0,16(sp)
    8000289e:	e426                	sd	s1,8(sp)
    800028a0:	1000                	add	s0,sp,32
    800028a2:	84ae                	mv	s1,a1
  *ip = argraw(n);
    800028a4:	eb7ff0ef          	jal	8000275a <argraw>
    800028a8:	e088                	sd	a0,0(s1)
}
    800028aa:	60e2                	ld	ra,24(sp)
    800028ac:	6442                	ld	s0,16(sp)
    800028ae:	64a2                	ld	s1,8(sp)
    800028b0:	6105                	add	sp,sp,32
    800028b2:	8082                	ret

00000000800028b4 <argstr>:
{
    800028b4:	7179                	add	sp,sp,-48
    800028b6:	f406                	sd	ra,40(sp)
    800028b8:	f022                	sd	s0,32(sp)
    800028ba:	ec26                	sd	s1,24(sp)
    800028bc:	e84a                	sd	s2,16(sp)
    800028be:	1800                	add	s0,sp,48
    800028c0:	84ae                	mv	s1,a1
    800028c2:	8932                	mv	s2,a2
  argaddr(n, &addr);
    800028c4:	fd840593          	add	a1,s0,-40
    800028c8:	fd1ff0ef          	jal	80002898 <argaddr>
  return fetchstr(addr, buf, max);
    800028cc:	864a                	mv	a2,s2
    800028ce:	85a6                	mv	a1,s1
    800028d0:	fd843503          	ld	a0,-40(s0)
    800028d4:	f31ff0ef          	jal	80002804 <fetchstr>
}
    800028d8:	70a2                	ld	ra,40(sp)
    800028da:	7402                	ld	s0,32(sp)
    800028dc:	64e2                	ld	s1,24(sp)
    800028de:	6942                	ld	s2,16(sp)
    800028e0:	6145                	add	sp,sp,48
    800028e2:	8082                	ret

00000000800028e4 <syscall>:
{
    800028e4:	1101                	add	sp,sp,-32
    800028e6:	ec06                	sd	ra,24(sp)
    800028e8:	e822                	sd	s0,16(sp)
    800028ea:	e426                	sd	s1,8(sp)
    800028ec:	1000                	add	s0,sp,32
  struct proc *p = myproc();
    800028ee:	f1dfe0ef          	jal	8000180a <myproc>
    800028f2:	84aa                	mv	s1,a0
  num = p->trapframe->a7;
    800028f4:	6d3c                	ld	a5,88(a0)
    800028f6:	77dc                	ld	a5,168(a5)
    800028f8:	0007869b          	sext.w	a3,a5
  if(num > 0 && num < NELEM(syscalls) && syscalls[num]) {
    800028fc:	37fd                	addw	a5,a5,-1
    800028fe:	475d                	li	a4,23
    80002900:	02f76863          	bltu	a4,a5,80002930 <syscall+0x4c>
    80002904:	00369713          	sll	a4,a3,0x3
    80002908:	00005797          	auipc	a5,0x5
    8000290c:	ae878793          	add	a5,a5,-1304 # 800073f0 <syscalls>
    80002910:	97ba                	add	a5,a5,a4
    80002912:	6390                	ld	a2,0(a5)
    80002914:	ce11                	beqz	a2,80002930 <syscall+0x4c>
    syscall_counts[num]++;
    80002916:	068a                	sll	a3,a3,0x2
    80002918:	00013797          	auipc	a5,0x13
    8000291c:	0a878793          	add	a5,a5,168 # 800159c0 <syscall_counts>
    80002920:	97b6                	add	a5,a5,a3
    80002922:	4398                	lw	a4,0(a5)
    80002924:	2705                	addw	a4,a4,1
    80002926:	c398                	sw	a4,0(a5)
    p->trapframe->a0 = syscalls[num]();
    80002928:	6d24                	ld	s1,88(a0)
    8000292a:	9602                	jalr	a2
    8000292c:	f8a8                	sd	a0,112(s1)
    8000292e:	a829                	j	80002948 <syscall+0x64>
    printf("%d %s: unknown sys call %d\n",
    80002930:	15848613          	add	a2,s1,344
    80002934:	588c                	lw	a1,48(s1)
    80002936:	00005517          	auipc	a0,0x5
    8000293a:	a8250513          	add	a0,a0,-1406 # 800073b8 <states.0+0x158>
    8000293e:	b8ffd0ef          	jal	800004cc <printf>
    p->trapframe->a0 = -1;
    80002942:	6cbc                	ld	a5,88(s1)
    80002944:	577d                	li	a4,-1
    80002946:	fbb8                	sd	a4,112(a5)
}
    80002948:	60e2                	ld	ra,24(sp)
    8000294a:	6442                	ld	s0,16(sp)
    8000294c:	64a2                	ld	s1,8(sp)
    8000294e:	6105                	add	sp,sp,32
    80002950:	8082                	ret

0000000080002952 <sys_exit>:
#include "vm.h"
#include "pstat.h"

uint64
sys_exit(void)
{
    80002952:	1101                	add	sp,sp,-32
    80002954:	ec06                	sd	ra,24(sp)
    80002956:	e822                	sd	s0,16(sp)
    80002958:	1000                	add	s0,sp,32
  int n;
  argint(0, &n);
    8000295a:	fec40593          	add	a1,s0,-20
    8000295e:	4501                	li	a0,0
    80002960:	ee5ff0ef          	jal	80002844 <argint>
  kexit(n);
    80002964:	fec42503          	lw	a0,-20(s0)
    80002968:	e44ff0ef          	jal	80001fac <kexit>
  return 0;  // not reached
}
    8000296c:	4501                	li	a0,0
    8000296e:	60e2                	ld	ra,24(sp)
    80002970:	6442                	ld	s0,16(sp)
    80002972:	6105                	add	sp,sp,32
    80002974:	8082                	ret

0000000080002976 <sys_getpid>:

uint64
sys_getpid(void)
{
    80002976:	1141                	add	sp,sp,-16
    80002978:	e406                	sd	ra,8(sp)
    8000297a:	e022                	sd	s0,0(sp)
    8000297c:	0800                	add	s0,sp,16
  return myproc()->pid;
    8000297e:	e8dfe0ef          	jal	8000180a <myproc>
}
    80002982:	5908                	lw	a0,48(a0)
    80002984:	60a2                	ld	ra,8(sp)
    80002986:	6402                	ld	s0,0(sp)
    80002988:	0141                	add	sp,sp,16
    8000298a:	8082                	ret

000000008000298c <sys_fork>:

uint64
sys_fork(void)
{
    8000298c:	1141                	add	sp,sp,-16
    8000298e:	e406                	sd	ra,8(sp)
    80002990:	e022                	sd	s0,0(sp)
    80002992:	0800                	add	s0,sp,16
  return kfork();
    80002994:	9e4ff0ef          	jal	80001b78 <kfork>
}
    80002998:	60a2                	ld	ra,8(sp)
    8000299a:	6402                	ld	s0,0(sp)
    8000299c:	0141                	add	sp,sp,16
    8000299e:	8082                	ret

00000000800029a0 <sys_wait>:

uint64
sys_wait(void)
{
    800029a0:	1101                	add	sp,sp,-32
    800029a2:	ec06                	sd	ra,24(sp)
    800029a4:	e822                	sd	s0,16(sp)
    800029a6:	1000                	add	s0,sp,32
  uint64 p;
  argaddr(0, &p);
    800029a8:	fe840593          	add	a1,s0,-24
    800029ac:	4501                	li	a0,0
    800029ae:	eebff0ef          	jal	80002898 <argaddr>
  return kwait(p);
    800029b2:	fe843503          	ld	a0,-24(s0)
    800029b6:	f4cff0ef          	jal	80002102 <kwait>
}
    800029ba:	60e2                	ld	ra,24(sp)
    800029bc:	6442                	ld	s0,16(sp)
    800029be:	6105                	add	sp,sp,32
    800029c0:	8082                	ret

00000000800029c2 <sys_sbrk>:

uint64
sys_sbrk(void)
{
    800029c2:	7179                	add	sp,sp,-48
    800029c4:	f406                	sd	ra,40(sp)
    800029c6:	f022                	sd	s0,32(sp)
    800029c8:	ec26                	sd	s1,24(sp)
    800029ca:	1800                	add	s0,sp,48
  uint64 addr;
  int t;
  int n;

  argint(0, &n);
    800029cc:	fd840593          	add	a1,s0,-40
    800029d0:	4501                	li	a0,0
    800029d2:	e73ff0ef          	jal	80002844 <argint>
